 an

 Timestamp is 5c755b50 (Tue Feb 26 10:29:20 2019)

 Preferred load address is 0000000180000000

 Start         Length     Name                   Class
 0001:00000000 000002b0H .text$di                CODE
 0001:000002b0 0001aad0H .text$mn                CODE
 0001:0001ad80 00000020H .text$mn$00             CODE
 0001:0001ada0 00000250H .text$x                 CODE
 0002:00000000 00000258H .idata$5                DATA
 0002:00000258 00000010H .00cfg                  DATA
 0002:00000268 00000008H .CRT$XCA                DATA
 0002:00000270 00000040H .CRT$XCU                DATA
 0002:000002b0 00000008H .CRT$XCZ                DATA
 0002:000002b8 00000008H .CRT$XIA                DATA
 0002:000002c0 00000018H .CRT$XIC                DATA
 0002:000002d8 00000008H .CRT$XIZ                DATA
 0002:000002e0 00000008H .CRT$XPA                DATA
 0002:000002e8 00000010H .CRT$XPX                DATA
 0002:000002f8 00000008H .CRT$XPXA               DATA
 0002:00000300 00000008H .CRT$XPZ                DATA
 0002:00000308 00000008H .CRT$XTA                DATA
 0002:00000310 00000010H .CRT$XTZ                DATA
 0002:00000318 00000000H .gfids$y                DATA
 0002:00000320 00008e40H .rdata                  DATA
 0002:00009160 000002fcH .rdata$r                DATA
 0002:0000945c 000003bcH .rdata$zzzdbg           DATA
 0002:00009818 00000008H .rtc$IAA                DATA
 0002:00009820 00000008H .rtc$IZZ                DATA
 0002:00009828 00000008H .rtc$TAA                DATA
 0002:00009830 00000008H .rtc$TZZ                DATA
 0002:00009838 00001488H .xdata                  DATA
 0002:0000acc0 0000017cH .xdata$x                DATA
 0002:0000ae3c 00000020H .didat$2                DATA
 0002:0000ae5c 00000024H .didat$3                DATA
 0002:0000ae80 00000038H .didat$4                DATA
 0002:0000aeb8 00000090H .didat$6                DATA
 0002:0000af48 00000038H .didat$7                DATA
 0002:0000af80 00000048H .edata                  DATA
 0002:0000afc8 00000014H .idata$2                DATA
 0002:0000afdc 00000014H .idata$3                DATA
 0002:0000aff0 00000258H .idata$4                DATA
 0002:0000b248 00000574H .idata$6                DATA
 0003:00000000 00000aa0H .data                   DATA
 0003:00000aa0 000000f0H .data$r                 DATA
 0003:00000b90 00000040H .didat$5                DATA
 0003:00000bd0 0159eb18H .bss                    DATA
 0004:00000000 000015b4H .pdata                  DATA
 0005:00000000 00000060H .rsrc$01                DATA
 0005:00000060 00000180H .rsrc$02                DATA

  Address         Publics by Value              Rva+Base               Lib:Object

 0000:00000000       __hybrid_code_map_count    0000000000000000     <absolute>
 0000:00000000       __hybrid_code_map          0000000000000000     <absolute>
 0000:00000000       __guard_iat_count          0000000000000000     <absolute>
 0000:00000000       __guard_longjmp_count      0000000000000000     <absolute>
 0000:00000000       __volatile_metadata        0000000000000000     <absolute>
 0000:00000000       __guard_longjmp_table      0000000000000000     <absolute>
 0000:00000000       __guard_iat_table          0000000000000000     <absolute>
 0000:00000000       __guard_fids_count         0000000000000000     <absolute>
 0000:00000000       ___safe_se_handler_count   0000000000000000     <absolute>
 0000:00000000       __enclave_config           0000000000000000     <absolute>
 0000:00000000       ___safe_se_handler_table   0000000000000000     <absolute>
 0000:00000000       __guard_fids_table         0000000000000000     <absolute>
 0000:00000000       __hybrid_auxiliary_iat     0000000000000000     <absolute>
 0000:00000000       __dynamic_value_reloc_table 0000000000000000     <absolute>
 0000:00000100       __guard_flags              0000000000000100     <absolute>
 0000:00000000       __ImageBase                0000000180000000     <linker-defined>
 0001:000002b0       __local_stdio_printf_options 00000001800012b0 f i node_module.obj
 0001:000002c0       ?turn_toward@@YA?AU?$tquat@M$0A@@glm@@U12@U?$tvec3@M$0A@@2@@Z 00000001800012c0 f   node_module.obj
 0001:00000730       ?reset@Agent@@QEAAXH@Z     0000000180001730 f i node_module.obj
 0001:00000b70       ?init@Shared@@QEAAXXZ      0000000180001b70 f i node_module.obj
 0001:00001830       ?main_update@Shared@@QEAAXM@Z 0000000180002830 f i node_module.obj
 0001:00002280       ?simulation_update@Shared@@QEAAXN@Z 0000000180003280 f i node_module.obj
 0001:00003070       ??0Shared@@QEAA@XZ         0000000180004070 f i node_module.obj
 0001:00003850       ?node_init@@YAPEAUnapi_value__@@PEAUnapi_env__@@PEAUnapi_callback_info__@@@Z 0000000180004850 f   node_module.obj
 0001:00003860       ?node_update@@YAPEAUnapi_value__@@PEAUnapi_env__@@PEAUnapi_callback_info__@@@Z 0000000180004860 f   node_module.obj
 0001:00003940       ?Init@@YAPEAUnapi_value__@@PEAUnapi_env__@@PEAU1@@Z 0000000180004940 f   node_module.obj
 0001:00003a40       ?move@?$Hashspace@$0BAAA@$04@@QEAAXIU?$tvec3@M$0A@@glm@@@Z 0000000180004a40 f i node_module.obj
 0001:00003c50       ?query@?$Hashspace@$0BAAA@$04@@QEAAHAEAV?$vector@HV?$allocator@H@std@@@std@@HU?$tvec3@M$0A@@glm@@HMM@Z 0000000180004c50 f i node_module.obj
 0001:00003f60       ?reset@?$Hashspace@$0BAAA@$04@@QEAAAEAU1@U?$tvec3@M$0A@@glm@@0@Z 0000000180004f60 f i node_module.obj
 0001:00004550       ?splat@?$Array3DSized@U?$tvec4@M$0A@@glm@@$0EA@$0EA@$0EA@@@QEAAAEAU1@U?$tvec4@M$0A@@glm@@U?$tvec3@M$0A@@3@@Z 0000000180005550 f i node_module.obj
 0001:00004d80       ?sample@?$Array2DSized@U?$tvec3@M$0A@@glm@@$0HP@$0HP@@@QEAA?AU?$tvec3@M$0A@@glm@@U?$tvec2@M$0A@@3@@Z 0000000180005d80 f i node_module.obj
 0001:00005010       ??$?DM$0A@@glm@@YA?AU?$tmat4x4@M$0A@@0@AEBU10@0@Z 0000000180006010 f i node_module.obj
 0001:000055b0       ??$_Resize@V<lambda_7c1f8801e9057f59bf0e89d8a2ca440c>@@@?$vector@V?$vector@UShellData@?1??reset@?$Hashspace@$0BAAA@$04@@QEAAAEAU3@U?$tvec3@M$0A@@glm@@0@Z@V?$allocator@UShellData@?1??reset@?$Hashspace@$0BAAA@$04@@QEAAAEAU3@U?$tvec3@M$0A@@glm@@0@Z@@std@@@std@@V?$allocator@V?$vector@UShellData@?1??reset@?$Hashspace@$0BAAA@$04@@QEAAAEAU3@U?$tvec3@M$0A@@glm@@0@Z@V?$allocator@UShellData@?1??reset@?$Hashspace@$0BAAA@$04@@QEAAAEAU3@U?$tvec3@M$0A@@glm@@0@Z@@std@@@std@@@2@@std@@AEAAX_KV<lambda_7c1f8801e9057f59bf0e89d8a2ca440c>@@@Z 00000001800065b0 f i node_module.obj
 0001:00005840       ??$_Emplace_reallocate@UShellData@?1??reset@?$Hashspace@$0BAAA@$04@@QEAAAEAU3@U?$tvec3@M$0A@@glm@@0@Z@@?$vector@UShellData@?1??reset@?$Hashspace@$0BAAA@$04@@QEAAAEAU3@U?$tvec3@M$0A@@glm@@0@Z@V?$allocator@UShellData@?1??reset@?$Hashspace@$0BAAA@$04@@QEAAAEAU3@U?$tvec3@M$0A@@glm@@0@Z@@std@@@std@@QEAAPEAUShellData@?1??reset@?$Hashspace@$0BAAA@$04@@QEAAAEAU4@U?$tvec3@M$0A@@glm@@0@Z@QEAU2?1??34@QEAAAEAU4@00@Z@$$QEAU2?1??34@QEAAAEAU4@00@Z@@Z 0000000180006840 f i node_module.obj
 0001:00005a20       ??$_Emplace_reallocate@AEBH@?$vector@HV?$allocator@H@std@@@std@@QEAAPEAHQEAHAEBH@Z 0000000180006a20 f i node_module.obj
 0001:00005bc0       ??$_Destroy_range@V?$allocator@V?$vector@UShellData@?1??reset@?$Hashspace@$0BAAA@$04@@QEAAAEAU3@U?$tvec3@M$0A@@glm@@0@Z@V?$allocator@UShellData@?1??reset@?$Hashspace@$0BAAA@$04@@QEAAAEAU3@U?$tvec3@M$0A@@glm@@0@Z@@std@@@std@@@std@@@std@@YAXPEAV?$vector@UShellData@?1??reset@?$Hashspace@$0BAAA@$04@@QEAAAEAU3@U?$tvec3@M$0A@@glm@@0@Z@V?$allocator@UShellData@?1??reset@?$Hashspace@$0BAAA@$04@@QEAAAEAU3@U?$tvec3@M$0A@@glm@@0@Z@@std@@@0@0AEAV?$allocator@V?$vector@UShellData@?1??reset@?$Hashspace@$0BAAA@$04@@QEAAAEAU3@U?$tvec3@M$0A@@glm@@0@Z@V?$allocator@UShellData@?1??reset@?$Hashspace@$0BAAA@$04@@QEAAAEAU3@U?$tvec3@M$0A@@glm@@0@Z@@std@@@std@@@0@@Z 0000000180006bc0 f i node_module.obj
 0001:00005c50       ?_Xlength@?$vector@V?$vector@UShellData@?1??reset@?$Hashspace@$0BAAA@$04@@QEAAAEAU3@U?$tvec3@M$0A@@glm@@0@Z@V?$allocator@UShellData@?1??reset@?$Hashspace@$0BAAA@$04@@QEAAAEAU3@U?$tvec3@M$0A@@glm@@0@Z@@std@@@std@@V?$allocator@V?$vector@UShellData@?1??reset@?$Hashspace@$0BAAA@$04@@QEAAAEAU3@U?$tvec3@M$0A@@glm@@0@Z@V?$allocator@UShellData@?1??reset@?$Hashspace@$0BAAA@$04@@QEAAAEAU3@U?$tvec3@M$0A@@glm@@0@Z@@std@@@std@@@2@@std@@CAXXZ 0000000180006c50 f i node_module.obj
 0001:00005c50       ?_Xlength@?$vector@UShellData@?1??reset@?$Hashspace@$0BAAA@$04@@QEAAAEAU3@U?$tvec3@M$0A@@glm@@0@Z@V?$allocator@UShellData@?1??reset@?$Hashspace@$0BAAA@$04@@QEAAAEAU3@U?$tvec3@M$0A@@glm@@0@Z@@std@@@std@@CAXXZ 0000000180006c50 f i node_module.obj
 0001:00005c50       ?_Xlength@?$vector@HV?$allocator@H@std@@@std@@CAXXZ 0000000180006c50 f i node_module.obj
 0001:00005c70       ?call@?$compute_rand@I$0A@Utvec1@glm@@@detail@glm@@SA?AU?$tvec1@I$0A@@3@XZ 0000000180006c70 f i node_module.obj
 0001:00005d60       ?call@?$compute_rand@G$0A@Utvec4@glm@@@detail@glm@@SA?AU?$tvec4@G$0A@@3@XZ 0000000180006d60 f i node_module.obj
 0001:00005f10       ?call@?$compute_rand@G$0A@Utvec3@glm@@@detail@glm@@SA?AU?$tvec3@G$0A@@3@XZ 0000000180006f10 f i node_module.obj
 0001:00006060       ??$compute_inverse@M$0A@@detail@glm@@YA?AU?$tmat4x4@M$0A@@1@AEBU21@@Z 0000000180007060 f i node_module.obj
 0001:0000681c       __imp_load_napi_create_external_arraybuffer 000000018000781c f   node:node.exe
 0001:00006828       __tailMerge_node_exe       0000000180007828     node:node.exe
 0001:000068a1       __imp_load_napi_module_register 00000001800078a1 f   node:node.exe
 0001:000068ad       __imp_load_napi_define_properties 00000001800078ad f   node:node.exe
 0001:000068b9       __imp_load_napi_typeof     00000001800078b9 f   node:node.exe
 0001:000068c5       __imp_load_napi_get_cb_info 00000001800078c5 f   node:node.exe
 0001:000068d1       __imp_load_napi_get_value_double 00000001800078d1 f   node:node.exe
 0001:000068e0       ??0bad_alloc@std@@QEAA@AEBV01@@Z 00000001800078e0 f i libcpmt:xthrow.obj
 0001:00006920       ??0bad_alloc@std@@QEAA@XZ  0000000180007920 f i libcpmt:xthrow.obj
 0001:00006940       ??0exception@std@@QEAA@AEBV01@@Z 0000000180007940 f i libcpmt:xthrow.obj
 0001:00006978       ??0length_error@std@@QEAA@AEBV01@@Z 0000000180007978 f i libcpmt:xthrow.obj
 0001:000069b8       ??0length_error@std@@QEAA@PEBD@Z 00000001800079b8 f i libcpmt:xthrow.obj
 0001:00006a04       ??0logic_error@std@@QEAA@AEBV01@@Z 0000000180007a04 f i libcpmt:xthrow.obj
 0001:00006a44       ??1bad_array_new_length@std@@UEAA@XZ 0000000180007a44 f i LIBCMT:throw_bad_alloc.obj
 0001:00006a44       ??1bad_alloc@std@@UEAA@XZ  0000000180007a44 f i libcpmt:xthrow.obj
 0001:00006a44       ??1length_error@std@@UEAA@XZ 0000000180007a44 f i libcpmt:xthrow.obj
 0001:00006a58       ??_Elogic_error@std@@UEAAPEAXI@Z 0000000180007a58 f i libcpmt:xthrow.obj
 0001:00006a58       ??_Eexception@std@@UEAAPEAXI@Z 0000000180007a58 f i libcpmt:xthrow.obj
 0001:00006a58       ??_Gbad_alloc@std@@UEAAPEAXI@Z 0000000180007a58 f i libcpmt:xthrow.obj
 0001:00006a58       ??_Glength_error@std@@UEAAPEAXI@Z 0000000180007a58 f i libcpmt:xthrow.obj
 0001:00006a58       ??_Ebad_array_new_length@std@@UEAAPEAXI@Z 0000000180007a58 f i LIBCMT:throw_bad_alloc.obj
 0001:00006a58       ??_Elength_error@std@@UEAAPEAXI@Z 0000000180007a58 f i libcpmt:xthrow.obj
 0001:00006a58       ??_Gexception@std@@UEAAPEAXI@Z 0000000180007a58 f i libcpmt:xthrow.obj
 0001:00006a58       ??_Glogic_error@std@@UEAAPEAXI@Z 0000000180007a58 f i libcpmt:xthrow.obj
 0001:00006a58       ??_Ebad_alloc@std@@UEAAPEAXI@Z 0000000180007a58 f i libcpmt:xthrow.obj
 0001:00006a58       ??_Gbad_array_new_length@std@@UEAAPEAXI@Z 0000000180007a58 f i LIBCMT:throw_bad_alloc.obj
 0001:00006a9c       ?_Xlength_error@std@@YAXPEBD@Z 0000000180007a9c f   libcpmt:xthrow.obj
 0001:00006ac0       ?what@exception@std@@UEBAPEBDXZ 0000000180007ac0 f i libcpmt:xthrow.obj
 0001:00006af0       __security_check_cookie    0000000180007af0 f   LIBCMT:amdsecgs.obj
 0001:00006b14       ??2@YAPEAX_K@Z             0000000180007b14 f   LIBCMT:new_scalar.obj
 0001:00006b50       ??3@YAXPEAX_K@Z            0000000180007b50 f   LIBCMT:delete_scalar_size.obj
 0001:00006e88       _DllMainCRTStartup         0000000180007e88 f   LIBCMT:dll_dllmain.obj
 0001:00006ec8       ??_Etype_info@@UEAAPEAXI@Z 0000000180007ec8 f i LIBCMT:std_type_info_static.obj
 0001:00006ec8       ??_Gtype_info@@UEAAPEAXI@Z 0000000180007ec8 f i LIBCMT:std_type_info_static.obj
 0001:00006ef4       __raise_securityfailure    0000000180007ef4 f   LIBCMT:gs_report.obj
 0001:00006f28       __report_gsfailure         0000000180007f28 f   LIBCMT:gs_report.obj
 0001:00006ffc       __report_rangecheckfailure 0000000180007ffc f   LIBCMT:gs_report.obj
 0001:00007010       __report_securityfailure   0000000180008010 f   LIBCMT:gs_report.obj
 0001:00007190       ??0bad_array_new_length@std@@QEAA@AEBV01@@Z 0000000180008190 f i LIBCMT:throw_bad_alloc.obj
 0001:000071d0       ??0bad_array_new_length@std@@QEAA@XZ 00000001800081d0 f i LIBCMT:throw_bad_alloc.obj
 0001:000071f0       ?__scrt_throw_std_bad_alloc@@YAXXZ 00000001800081f0 f   LIBCMT:throw_bad_alloc.obj
 0001:00007210       ?__scrt_throw_std_bad_array_new_length@@YAXXZ 0000000180008210 f   LIBCMT:throw_bad_alloc.obj
 0001:00007230       ??3@YAXPEAX@Z              0000000180008230 f   LIBCMT:delete_scalar.obj
 0001:00007238       __security_init_cookie     0000000180008238 f   LIBCMT:gs_support.obj
 0001:000072e4       _get_startup_argv_mode     00000001800082e4 f   LIBCMT:argv_mode.obj
 0001:000072e4       DllMain                    00000001800082e4 f   LIBCMT:dll_dllmain_stub.obj
 0001:000072ec       ?__scrt_initialize_type_info@@YAXXZ 00000001800082ec f   LIBCMT:tncleanup.obj
 0001:000072fc       ?__scrt_uninitialize_type_info@@YAXXZ 00000001800082fc f   LIBCMT:tncleanup.obj
 0001:00007308       __local_stdio_scanf_options 0000000180008308 f i LIBCMT:default_local_stdio_options.obj
 0001:00007310       __scrt_initialize_default_local_stdio_options 0000000180008310 f   LIBCMT:default_local_stdio_options.obj
 0001:0000732c       __scrt_acquire_startup_lock 000000018000832c f   LIBCMT:utility.obj
 0001:00007368       __scrt_dllmain_after_initialize_c 0000000180008368 f   LIBCMT:utility.obj
 0001:0000739c       __scrt_dllmain_before_initialize_c 000000018000839c f   LIBCMT:utility.obj
 0001:000073b4       __scrt_dllmain_crt_thread_attach 00000001800083b4 f   LIBCMT:utility.obj
 0001:000073dc       __scrt_dllmain_crt_thread_detach 00000001800083dc f   LIBCMT:utility.obj
 0001:000073f4       __scrt_dllmain_exception_filter 00000001800083f4 f   LIBCMT:utility.obj
 0001:00007454       __scrt_dllmain_uninitialize_c 0000000180008454 f   LIBCMT:utility.obj
 0001:00007484       __scrt_dllmain_uninitialize_critical 0000000180008484 f   LIBCMT:utility.obj
 0001:00007498       __scrt_initialize_crt      0000000180008498 f   LIBCMT:utility.obj
 0001:000074e4       __scrt_initialize_onexit_tables 00000001800084e4 f   LIBCMT:utility.obj
 0001:000075bc       __scrt_is_nonwritable_in_current_image 00000001800085bc f   LIBCMT:utility.obj
 0001:00007658       __scrt_release_startup_lock 0000000180008658 f   LIBCMT:utility.obj
 0001:0000767c       __scrt_uninitialize_crt    000000018000867c f   LIBCMT:utility.obj
 0001:000076a8       __scrt_get_dyn_tls_init_callback 00000001800086a8 f   LIBCMT:dyn_tls_init.obj
 0001:000076b0       __crt_debugger_hook        00000001800086b0 f   LIBCMT:utility_desktop.obj
 0001:000076b8       __scrt_fastfail            00000001800086b8 f   LIBCMT:utility_desktop.obj
 0001:00007804       _RTC_Initialize            0000000180008804 f   LIBCMT:initsect.obj
 0001:00007840       _RTC_Terminate             0000000180008840 f   LIBCMT:initsect.obj
 0001:0000787c       _guard_check_icall_nop     000000018000887c f i LIBCMT:guard_support.obj
 0001:00007880       __isa_available_init       0000000180008880 f   LIBCMT:cpu_disp.obj
 0001:00007a3c       __scrt_is_ucrt_dll_in_use  0000000180008a3c f   LIBCMT:ucrt_detection.obj
 0001:00007a50       __std_exception_copy       0000000180008a50 f   libvcruntime:std_exception.obj
 0001:00007ae0       __std_exception_destroy    0000000180008ae0 f   libvcruntime:std_exception.obj
 0001:00007b08       _CxxThrowException         0000000180008b08 f   libvcruntime:throw.obj
 0001:00007bc8       __C_specific_handler       0000000180008bc8 f   libvcruntime:riscchandler.obj
 0001:00007dd4       __std_type_info_destroy_list 0000000180008dd4 f   libvcruntime:std_type_info.obj
 0001:00007e00       __vcrt_initialize          0000000180008e00 f   libvcruntime:initialization.obj
 0001:00007e34       __vcrt_thread_attach       0000000180008e34 f   libvcruntime:initialization.obj
 0001:00007e48       __vcrt_thread_detach       0000000180008e48 f   libvcruntime:initialization.obj
 0001:00007e5c       __vcrt_uninitialize        0000000180008e5c f   libvcruntime:initialization.obj
 0001:00007e7c       __vcrt_uninitialize_critical 0000000180008e7c f   libvcruntime:initialization.obj
 0001:00007ea0       memset_repmovs             0000000180008ea0 f   libvcruntime:memset.obj
 0001:00007ec0       memset                     0000000180008ec0 f   libvcruntime:memset.obj
 0001:00008060       _NLG_Notify                0000000180009060 f   libvcruntime:notify.obj
 0001:00008080       __NLG_Dispatch2            0000000180009080 f   libvcruntime:notify.obj
 0001:00008090       __NLG_Return2              0000000180009090 f   libvcruntime:notify.obj
 0001:00008094       __except_validate_context_record 0000000180009094 f   libvcruntime:jbcxrval.obj
 0001:000080cc       __DestructExceptionObject  00000001800090cc f   libvcruntime:ehhelpers.obj
 0001:00008140       ?_CallMemberFunction0@@YAXQEAX0@Z 0000000180009140 f i libvcruntime:ehhelpers.obj
 0001:00008144       __vcrt_freefls             0000000180009144 f   libvcruntime:per_thread_data.obj
 0001:00008164       __vcrt_freeptd             0000000180009164 f   libvcruntime:per_thread_data.obj
 0001:000081b4       __vcrt_getptd_noexit       00000001800091b4 f   libvcruntime:per_thread_data.obj
 0001:00008280       __vcrt_initialize_ptd      0000000180009280 f   libvcruntime:per_thread_data.obj
 0001:000082d4       __vcrt_uninitialize_ptd    00000001800092d4 f   libvcruntime:per_thread_data.obj
 0001:000082f8       __vcrt_initialize_locks    00000001800092f8 f   libvcruntime:locks.obj
 0001:00008340       __vcrt_uninitialize_locks  0000000180009340 f   libvcruntime:locks.obj
 0001:00008550       __vcrt_FlsAlloc            0000000180009550 f   libvcruntime:winapi_downlevel.obj
 0001:00008598       __vcrt_FlsFree             0000000180009598 f   libvcruntime:winapi_downlevel.obj
 0001:000085e0       __vcrt_FlsGetValue         00000001800095e0 f   libvcruntime:winapi_downlevel.obj
 0001:00008628       __vcrt_FlsSetValue         0000000180009628 f   libvcruntime:winapi_downlevel.obj
 0001:0000867c       __vcrt_InitializeCriticalSectionEx 000000018000967c f   libvcruntime:winapi_downlevel.obj
 0001:000086e0       __vcrt_initialize_winapi_thunks 00000001800096e0 f   libvcruntime:winapi_downlevel.obj
 0001:00008710       __vcrt_uninitialize_winapi_thunks 0000000180009710 f   libvcruntime:winapi_downlevel.obj
 0001:00008750       __vcrt_initialize_pure_virtual_call_handler 0000000180009750 f   libvcruntime:purevirt_data.obj
 0001:00008770       memcpy_repmovs             0000000180009770 f   libvcruntime:memcpy.obj
 0001:00008790       memmove                    0000000180009790 f   libvcruntime:memcpy.obj
 0001:00008790       memcpy                     0000000180009790 f   libvcruntime:memcpy.obj
 0001:00008be0       _CallSettingFrame          0000000180009be0 f   libvcruntime:handlers.obj
 0001:00008c30       _CallSettingFrameEncoded   0000000180009c30 f   libvcruntime:handlers.obj
 0001:00008c78       _fputc_nolock              0000000180009c78 f   libucrt:fputc.obj
 0001:00008c90       __acrt_initialize_stdio    0000000180009c90 f   libucrt:_file.obj
 0001:00008db0       __acrt_iob_func            0000000180009db0 f   libucrt:_file.obj
 0001:00008dc4       __acrt_uninitialize_stdio  0000000180009dc4 f   libucrt:_file.obj
 0001:00008e20       _lock_file                 0000000180009e20 f   libucrt:_file.obj
 0001:00008e2c       _unlock_file               0000000180009e2c f   libucrt:_file.obj
 0001:00008e38       rand                       0000000180009e38 f   libucrt:rand.obj
 0001:00009078       ??$ensure_buffer_is_big_enough@D@formatting_buffer@__crt_stdio_output@@QEAA_N_K@Z 000000018000a078 f i libucrt:output.obj
 0001:00009120       ??$ensure_buffer_is_big_enough@_W@formatting_buffer@__crt_stdio_output@@QEAA_N_K@Z 000000018000a120 f i libucrt:output.obj
 0001:000091cc       ??$is_wide_character_specifier@_W@__crt_stdio_output@@YA_N_K_WW4length_modifier@0@@Z 000000018000a1cc f i libucrt:output.obj
 0001:0000920c       ??$type_case_integer_parse_into_buffer@I@?$output_processor@_WV?$string_output_adapter@_W@__crt_stdio_output@@V?$standard_base@_WV?$string_output_adapter@_W@__crt_stdio_output@@@2@@__crt_stdio_output@@AEAAXII_N@Z 000000018000a20c f i libucrt:output.obj
 0001:0000920c       ??$type_case_integer_parse_into_buffer@I@?$output_processor@_WV?$stream_output_adapter@_W@__crt_stdio_output@@V?$standard_base@_WV?$stream_output_adapter@_W@__crt_stdio_output@@@2@@__crt_stdio_output@@AEAAXII_N@Z 000000018000a20c f i libucrt:output.obj
 0001:000092b0       ??$type_case_integer_parse_into_buffer@_K@?$output_processor@_WV?$string_output_adapter@_W@__crt_stdio_output@@V?$standard_base@_WV?$string_output_adapter@_W@__crt_stdio_output@@@2@@__crt_stdio_output@@AEAAX_KI_N@Z 000000018000a2b0 f i libucrt:output.obj
 0001:000092b0       ??$type_case_integer_parse_into_buffer@_K@?$output_processor@_WV?$stream_output_adapter@_W@__crt_stdio_output@@V?$standard_base@_WV?$stream_output_adapter@_W@__crt_stdio_output@@@2@@__crt_stdio_output@@AEAAX_KI_N@Z 000000018000a2b0 f i libucrt:output.obj
 0001:00009354       ??$write_multiple_characters@V?$stream_output_adapter@_W@__crt_stdio_output@@D@__crt_stdio_output@@YAXAEBV?$stream_output_adapter@_W@0@DHQEAH@Z 000000018000a354 f i libucrt:output.obj
 0001:000093e8       ??$write_multiple_characters@V?$string_output_adapter@_W@__crt_stdio_output@@D@__crt_stdio_output@@YAXAEBV?$string_output_adapter@_W@0@DHQEAH@Z 000000018000a3e8 f i libucrt:output.obj
 0001:00009464       ??0_LocaleUpdate@@QEAA@QEAU__crt_locale_pointers@@@Z 000000018000a464 f i libucrt:output.obj
 0001:00009634       ?crop_zeroes@__crt_stdio_output@@YAXPEADQEAU__crt_locale_pointers@@@Z 000000018000a634 f i libucrt:output.obj
 0001:000096a0       ?force_decimal_point@__crt_stdio_output@@YAXPEADQEAU__crt_locale_pointers@@@Z 000000018000a6a0 f i libucrt:output.obj
 0001:00009710       ?parse_int_from_format_string@?$output_processor@_WV?$string_output_adapter@_W@__crt_stdio_output@@V?$standard_base@_WV?$string_output_adapter@_W@__crt_stdio_output@@@2@@__crt_stdio_output@@AEAA_NQEAH@Z 000000018000a710 f i libucrt:output.obj
 0001:00009710       ?parse_int_from_format_string@?$output_processor@_WV?$stream_output_adapter@_W@__crt_stdio_output@@V?$standard_base@_WV?$stream_output_adapter@_W@__crt_stdio_output@@@2@@__crt_stdio_output@@AEAA_NQEAH@Z 000000018000a710 f i libucrt:output.obj
 0001:000097b4       ?process@?$output_processor@_WV?$stream_output_adapter@_W@__crt_stdio_output@@V?$standard_base@_WV?$stream_output_adapter@_W@__crt_stdio_output@@@2@@__crt_stdio_output@@QEAAHXZ 000000018000a7b4 f i libucrt:output.obj
 0001:00009a20       ?process@?$output_processor@_WV?$string_output_adapter@_W@__crt_stdio_output@@V?$standard_base@_WV?$string_output_adapter@_W@__crt_stdio_output@@@2@@__crt_stdio_output@@QEAAHXZ 000000018000aa20 f i libucrt:output.obj
 0001:00009c9c       ?state_case_size@?$output_processor@_WV?$stream_output_adapter@_W@__crt_stdio_output@@V?$standard_base@_WV?$stream_output_adapter@_W@__crt_stdio_output@@@2@@__crt_stdio_output@@AEAA_NXZ 000000018000ac9c f i libucrt:output.obj
 0001:00009e34       ?state_case_size@?$output_processor@_WV?$string_output_adapter@_W@__crt_stdio_output@@V?$standard_base@_WV?$string_output_adapter@_W@__crt_stdio_output@@@2@@__crt_stdio_output@@AEAA_NXZ 000000018000ae34 f i libucrt:output.obj
 0001:00009fcc       ?state_case_type@?$output_processor@_WV?$stream_output_adapter@_W@__crt_stdio_output@@V?$standard_base@_WV?$stream_output_adapter@_W@__crt_stdio_output@@@2@@__crt_stdio_output@@AEAA_NXZ 000000018000afcc f i libucrt:output.obj
 0001:0000a2ac       ?state_case_type@?$output_processor@_WV?$string_output_adapter@_W@__crt_stdio_output@@V?$standard_base@_WV?$string_output_adapter@_W@__crt_stdio_output@@@2@@__crt_stdio_output@@AEAA_NXZ 000000018000b2ac f i libucrt:output.obj
 0001:0000a578       ?type_case_Z@?$output_processor@_WV?$stream_output_adapter@_W@__crt_stdio_output@@V?$standard_base@_WV?$stream_output_adapter@_W@__crt_stdio_output@@@2@@__crt_stdio_output@@AEAA_NXZ 000000018000b578 f i libucrt:output.obj
 0001:0000a578       ?type_case_Z@?$output_processor@_WV?$string_output_adapter@_W@__crt_stdio_output@@V?$standard_base@_WV?$string_output_adapter@_W@__crt_stdio_output@@@2@@__crt_stdio_output@@AEAA_NXZ 000000018000b578 f i libucrt:output.obj
 0001:0000a5f4       ?type_case_a@?$output_processor@_WV?$string_output_adapter@_W@__crt_stdio_output@@V?$standard_base@_WV?$string_output_adapter@_W@__crt_stdio_output@@@2@@__crt_stdio_output@@AEAA_NXZ 000000018000b5f4 f i libucrt:output.obj
 0001:0000a5f4       ?type_case_a@?$output_processor@_WV?$stream_output_adapter@_W@__crt_stdio_output@@V?$standard_base@_WV?$stream_output_adapter@_W@__crt_stdio_output@@@2@@__crt_stdio_output@@AEAA_NXZ 000000018000b5f4 f i libucrt:output.obj
 0001:0000a7d4       ?type_case_c_tchar@?$output_processor@_WV?$string_output_adapter@_W@__crt_stdio_output@@V?$standard_base@_WV?$string_output_adapter@_W@__crt_stdio_output@@@2@@__crt_stdio_output@@AEAA_N_W@Z 000000018000b7d4 f i libucrt:output.obj
 0001:0000a7d4       ?type_case_c_tchar@?$output_processor@_WV?$stream_output_adapter@_W@__crt_stdio_output@@V?$standard_base@_WV?$stream_output_adapter@_W@__crt_stdio_output@@@2@@__crt_stdio_output@@AEAA_N_W@Z 000000018000b7d4 f i libucrt:output.obj
 0001:0000a87c       ?type_case_integer@?$output_processor@_WV?$string_output_adapter@_W@__crt_stdio_output@@V?$standard_base@_WV?$string_output_adapter@_W@__crt_stdio_output@@@2@@__crt_stdio_output@@AEAA_NI_N@Z 000000018000b87c f i libucrt:output.obj
 0001:0000a87c       ?type_case_integer@?$output_processor@_WV?$stream_output_adapter@_W@__crt_stdio_output@@V?$standard_base@_WV?$stream_output_adapter@_W@__crt_stdio_output@@@2@@__crt_stdio_output@@AEAA_NI_N@Z 000000018000b87c f i libucrt:output.obj
 0001:0000aa48       ?type_case_n@?$output_processor@_WV?$string_output_adapter@_W@__crt_stdio_output@@V?$standard_base@_WV?$string_output_adapter@_W@__crt_stdio_output@@@2@@__crt_stdio_output@@AEAA_NXZ 000000018000ba48 f i libucrt:output.obj
 0001:0000aa48       ?type_case_n@?$output_processor@_WV?$stream_output_adapter@_W@__crt_stdio_output@@V?$standard_base@_WV?$stream_output_adapter@_W@__crt_stdio_output@@@2@@__crt_stdio_output@@AEAA_NXZ 000000018000ba48 f i libucrt:output.obj
 0001:0000ab24       ?type_case_s@?$output_processor@_WV?$stream_output_adapter@_W@__crt_stdio_output@@V?$standard_base@_WV?$stream_output_adapter@_W@__crt_stdio_output@@@2@@__crt_stdio_output@@AEAA_NXZ 000000018000bb24 f i libucrt:output.obj
 0001:0000ab24       ?type_case_s@?$output_processor@_WV?$string_output_adapter@_W@__crt_stdio_output@@V?$standard_base@_WV?$string_output_adapter@_W@__crt_stdio_output@@@2@@__crt_stdio_output@@AEAA_NXZ 000000018000bb24 f i libucrt:output.obj
 0001:0000abec       ?write_stored_string_tchar@?$output_processor@_WV?$stream_output_adapter@_W@__crt_stdio_output@@V?$standard_base@_WV?$stream_output_adapter@_W@__crt_stdio_output@@@2@@__crt_stdio_output@@AEAA_N_W@Z 000000018000bbec f i libucrt:output.obj
 0001:0000acf4       ?write_stored_string_tchar@?$output_processor@_WV?$string_output_adapter@_W@__crt_stdio_output@@V?$standard_base@_WV?$string_output_adapter@_W@__crt_stdio_output@@@2@@__crt_stdio_output@@AEAA_N_W@Z 000000018000bcf4 f i libucrt:output.obj
 0001:0000ade0       ?write_string@?$string_output_adapter@_W@__crt_stdio_output@@QEBAXQEB_WHQEAHAEAV__crt_deferred_errno_cache@@@Z 000000018000bde0 f i libucrt:output.obj
 0001:0000ae88       ?write_string_impl@?$output_adapter_common@_WV?$stream_output_adapter@_W@__crt_stdio_output@@@__crt_stdio_output@@IEBAXQEB_WHQEAHAEAV__crt_deferred_errno_cache@@@Z 000000018000be88 f i libucrt:output.obj
 0001:0000af8c       __stdio_common_vfwprintf   000000018000bf8c f   libucrt:output.obj
 0001:0000b018       __stdio_common_vswprintf   000000018000c018 f   libucrt:output.obj
 0001:0000b738       ??$ftprintf@PEAU_iobuf@@PEB_WAEBQEB_WAEBQEB_WAEBI@?$__crt_char_traits@_W@@SAH$$QEAPEAU_iobuf@@$$QEAPEB_WAEBQEB_W2AEBI@Z 000000018000c738 f i libucrt:assert.obj
 0001:0000b760       _wassert                   000000018000c760 f   libucrt:assert.obj
 0001:0000b7d4       fwprintf                   000000018000c7d4 f i libucrt:assert.obj
 0001:0000b818       swprintf                   000000018000c818 f i libucrt:assert.obj
 0001:0000b86c       __acrt_call_reportfault    000000018000c86c f   libucrt:invalid_parameter.obj
 0001:0000b9c8       __acrt_initialize_invalid_parameter_handler 000000018000c9c8 f   libucrt:invalid_parameter.obj
 0001:0000b9d0       _invalid_parameter         000000018000c9d0 f   libucrt:invalid_parameter.obj
 0001:0000ba80       _invalid_parameter_noinfo  000000018000ca80 f   libucrt:invalid_parameter.obj
 0001:0000baa0       _invalid_parameter_noinfo_noreturn 000000018000caa0 f   libucrt:invalid_parameter.obj
 0001:0000bad0       _invoke_watson             000000018000cad0 f   libucrt:invalid_parameter.obj
 0001:0000bb18       __ascii_stricmp            000000018000cb18 f   libucrt:stricmp.obj
 0001:0000bb58       _stricmp                   000000018000cb58 f   libucrt:stricmp.obj
 0001:0000bba0       _stricmp_l                 000000018000cba0 f   libucrt:stricmp.obj
 0001:0000bc54       __acrt_initialize_new_handler 000000018000cc54 f   libucrt:new_handler.obj
 0001:0000bc5c       _callnewh                  000000018000cc5c f   libucrt:new_handler.obj
 0001:0000bc8c       _query_new_handler         000000018000cc8c f   libucrt:new_handler.obj
 0001:0000bcc0       malloc                     000000018000ccc0 f   libucrt:malloc.obj
 0001:0000bcc8       _initterm                  000000018000ccc8 f   libucrt:initterm.obj
 0001:0000bd2c       _initterm_e                000000018000cd2c f   libucrt:initterm.obj
 0001:0000bd6c       free                       000000018000cd6c f   libucrt:free.obj
 0001:0000bd80       _seh_filter_dll            000000018000cd80 f   libucrt:exception_filter.obj
 0001:0000bd94       _seh_filter_exe            000000018000cd94 f   libucrt:exception_filter.obj
 0001:0000c184       __acrt_initialize_thread_local_exit_callback 000000018000d184 f   libucrt:exit.obj
 0001:0000c18c       _cexit                     000000018000d18c f   libucrt:exit.obj
 0001:0000c19c       _exit                      000000018000d19c f   libucrt:exit.obj
 0001:0000c1a8       _is_c_termination_complete 000000018000d1a8 f   libucrt:exit.obj
 0001:0000c374       __acrt_allocate_buffer_for_argv 000000018000d374 f   libucrt:argv_parsing.obj
 0001:0000c3d4       _configure_narrow_argv     000000018000d3d4 f   libucrt:argv_parsing.obj
 0001:0000c74c       __dcrt_uninitialize_environments_nolock 000000018000d74c f   libucrt:environment_initialization.obj
 0001:0000c784       _initialize_narrow_environment 000000018000d784 f   libucrt:environment_initialization.obj
 0001:0000c8e0       _execute_onexit_table      000000018000d8e0 f   libucrt:onexit.obj
 0001:0000c91c       _initialize_onexit_table   000000018000d91c f   libucrt:onexit.obj
 0001:0000c97c       __acrt_uninitialize_command_line 000000018000d97c f   libucrt:argv_data.obj
 0001:0000ca74       __acrt_initialize          000000018000da74 f   libucrt:initialization.obj
 0001:0000ca88       __acrt_thread_attach       000000018000da88 f   libucrt:initialization.obj
 0001:0000ca9c       __acrt_thread_detach       000000018000da9c f   libucrt:initialization.obj
 0001:0000caac       __acrt_uninitialize        000000018000daac f   libucrt:initialization.obj
 0001:0000cae4       __acrt_uninitialize_critical 000000018000dae4 f   libucrt:initialization.obj
 0001:0000caf4       terminate                  000000018000daf4 f   libucrt:terminate.obj
 0001:0000cb14       strcpy_s                   000000018000db14 f   libucrt:strcpy_s.obj
 0001:0000cb74       ??$parse_integer@KV?$c_string_character_source@_W@__crt_strtox@@@__crt_strtox@@YAKQEAU__crt_locale_pointers@@V?$c_string_character_source@_W@0@H_N@Z 000000018000db74 f i libucrt:atox.obj
 0001:0000d240       strncmp                    000000018000e240 f   libucrt:strncmp.obj
 0001:0000d2c0       abort                      000000018000e2c0 f   libucrt:abort.obj
 0001:0000d318       calloc                     000000018000e318 f   libucrt:calloc.obj
 0001:0000d320       wcsncmp                    000000018000e320 f   libucrt:wcsncmp.obj
 0001:0000d34c       __acrt_errno_from_os_error 000000018000e34c f   libucrt:errno.obj
 0001:0000d394       __acrt_errno_map_os_error  000000018000e394 f   libucrt:errno.obj
 0001:0000d3e4       __doserrno                 000000018000e3e4 f   libucrt:errno.obj
 0001:0000d404       _errno                     000000018000e404 f   libucrt:errno.obj
 0001:0000d424       _fileno                    000000018000e424 f   libucrt:fileno.obj
 0001:0000d690       __acrt_stdio_flush_and_write_narrow_nolock 000000018000e690 f   libucrt:_flsbuf.obj
 0001:0000d77c       __acrt_stdio_flush_and_write_wide_nolock 000000018000e77c f   libucrt:_flsbuf.obj
 0001:0000da64       __acrt_initialize_lowio    000000018000ea64 f   libucrt:ioinit.obj
 0001:0000daa0       __acrt_uninitialize_lowio  000000018000eaa0 f   libucrt:ioinit.obj
 0001:0000dae0       _calloc_base               000000018000eae0 f   libucrt:calloc_base.obj
 0001:0000db58       _free_base                 000000018000eb58 f   libucrt:free_base.obj
 0001:0000dd70       __acrt_AppPolicyGetProcessTerminationMethodInternal 000000018000ed70 f   libucrt:winapi_thunks.obj
 0001:0000ddc0       __acrt_AppPolicyGetShowDeveloperDiagnosticInternal 000000018000edc0 f   libucrt:winapi_thunks.obj
 0001:0000de10       __acrt_AppPolicyGetWindowingModelInternal 000000018000ee10 f   libucrt:winapi_thunks.obj
 0001:0000de60       __acrt_AreFileApisANSI     000000018000ee60 f   libucrt:winapi_thunks.obj
 0001:0000de9c       __acrt_FlsAlloc            000000018000ee9c f   libucrt:winapi_thunks.obj
 0001:0000dee4       __acrt_FlsFree             000000018000eee4 f   libucrt:winapi_thunks.obj
 0001:0000df2c       __acrt_FlsGetValue         000000018000ef2c f   libucrt:winapi_thunks.obj
 0001:0000df74       __acrt_FlsSetValue         000000018000ef74 f   libucrt:winapi_thunks.obj
 0001:0000dfc8       __acrt_InitializeCriticalSectionEx 000000018000efc8 f   libucrt:winapi_thunks.obj
 0001:0000e02c       __acrt_LCMapStringEx       000000018000f02c f   libucrt:winapi_thunks.obj
 0001:0000e108       __acrt_LocaleNameToLCID    000000018000f108 f   libucrt:winapi_thunks.obj
 0001:0000e158       __acrt_MessageBoxW         000000018000f158 f   libucrt:winapi_thunks.obj
 0001:0000e1cc       __acrt_can_show_message_box 000000018000f1cc f   libucrt:winapi_thunks.obj
 0001:0000e23c       __acrt_get_parent_window   000000018000f23c f   libucrt:winapi_thunks.obj
 0001:0000e2b4       __acrt_initialize_winapi_thunks 000000018000f2b4 f   libucrt:winapi_thunks.obj
 0001:0000e2e8       __acrt_is_interactive      000000018000f2e8 f   libucrt:winapi_thunks.obj
 0001:0000e3b0       __acrt_uninitialize_winapi_thunks 000000018000f3b0 f   libucrt:winapi_thunks.obj
 0001:0000e3f4       _fcloseall                 000000018000f3f4 f   libucrt:closeall.obj
 0001:0000e6c4       __acrt_stdio_flush_nolock  000000018000f6c4 f   libucrt:fflush.obj
 0001:0000e740       _fflush_nolock             000000018000f740 f   libucrt:fflush.obj
 0001:0000e78c       _flushall                  000000018000f78c f   libucrt:fflush.obj
 0001:0000e794       fflush                     000000018000f794 f   libucrt:fflush.obj
 0001:0000e7fc       __acrt_stdio_free_buffer_nolock 000000018000f7fc f   libucrt:_freebuf.obj
 0001:0000ebb4       __acrt_freeptd             000000018000fbb4 f   libucrt:per_thread_data.obj
 0001:0000ebf8       __acrt_getptd              000000018000fbf8 f   libucrt:per_thread_data.obj
 0001:0000eccc       __acrt_getptd_head         000000018000fccc f   libucrt:per_thread_data.obj
 0001:0000ed74       __acrt_getptd_noexit       000000018000fd74 f   libucrt:per_thread_data.obj
 0001:0000ee40       __acrt_initialize_ptd      000000018000fe40 f   libucrt:per_thread_data.obj
 0001:0000ee7c       __acrt_uninitialize_ptd    000000018000fe7c f   libucrt:per_thread_data.obj
 0001:0000eea0       isdigit                    000000018000fea0 f i libucrt:_ctype.obj
 0001:0000ef94       _tolower_l                 000000018000ff94 f   libucrt:tolower_toupper.obj
 0001:0000f0d4       tolower                    00000001800100d4 f   libucrt:tolower_toupper.obj
 0001:0000f100       _malloc_base               0000000180010100 f   libucrt:malloc_base.obj
 0001:0000f160       wcstol                     0000000180010160 f   libucrt:strtox.obj
 0001:0000f18c       _mbtowc_l                  000000018001018c f   libucrt:mbtowc.obj
 0001:0000f308       mbtowc                     0000000180010308 f   libucrt:mbtowc.obj
 0001:0000f310       _wctomb_s_l                0000000180010310 f   libucrt:wctomb.obj
 0001:0000f4b0       wctomb_s                   00000001800104b0 f   libucrt:wctomb.obj
 0001:0000f4c4       wcsnlen                    00000001800104c4 f   libucrt:strnlen.obj
 0001:0000f69c       __acrt_update_locale_info  000000018001069c f   libucrt:locale_update.obj
 0001:0000f6d0       __acrt_update_multibyte_info 00000001800106d0 f   libucrt:locale_update.obj
 0001:000100d8       __acrt_fp_format           00000001800110d8 f   libucrt:cvt.obj
 0001:00010360       _fputwc_nolock             0000000180011360 f   libucrt:fputwc.obj
 0001:000104dc       _get_printf_count_output   00000001800114dc f   libucrt:printf_count_output.obj
 0001:000104f4       __acrt_stdio_begin_temporary_buffering_nolock 00000001800114f4 f   libucrt:_sftbuf.obj
 0001:000105c4       __acrt_stdio_end_temporary_buffering_nolock 00000001800115c4 f   libucrt:_sftbuf.obj
 0001:00010670       __acrt_set_locale_changed  0000000180011670 f   libucrt:wsetlocale.obj
 0001:0001067c       __acrt_uninitialize_locale 000000018001167c f   libucrt:wsetlocale.obj
 0001:000106ac       _query_app_type            00000001800116ac f   libucrt:report_runtime_error.obj
 0001:000107f4       _itow_s                    00000001800117f4 f   libucrt:xtoa.obj
 0001:00010814       _set_error_mode            0000000180011814 f   libucrt:set_error_mode.obj
 0001:00010854       wcscat_s                   0000000180011854 f   libucrt:wcscat_s.obj
 0001:000108d4       wcscpy_s                   00000001800118d4 f   libucrt:wcscpy_s.obj
 0001:0001093c       wcsncat_s                  000000018001193c f   libucrt:wcsncat_s.obj
 0001:00010a3c       ??$__acrt_wcs_to_mbs_cp@U__crt_win32_buffer_no_resizing@@@@YAHQEB_WAEAV?$__crt_win32_buffer@DU__crt_win32_buffer_no_resizing@@@@I@Z 0000000180011a3c f i libucrt:getmodulefilenamea.obj
 0001:00010b50       __acrt_GetModuleFileNameA  0000000180011b50 f   libucrt:getmodulefilenamea.obj
 0001:00010c70       __acrt_show_wide_message_box 0000000180011c70 f   libucrt:crtmbox.obj
 0001:00010e34       setvbuf                    0000000180011e34 f   libucrt:setvbuf.obj
 0001:00010f18       __acrt_get_sigabrt_handler 0000000180011f18 f   libucrt:signal.obj
 0001:00010f48       __acrt_initialize_signal_handlers 0000000180011f48 f   libucrt:signal.obj
 0001:00010f68       raise                      0000000180011f68 f   libucrt:signal.obj
 0001:000111d4       __acrt_initialize_locks    00000001800121d4 f   libucrt:locks.obj
 0001:0001121c       __acrt_lock                000000018001221c f   libucrt:locks.obj
 0001:00011238       __acrt_uninitialize_locks  0000000180012238 f   libucrt:locks.obj
 0001:00011270       __acrt_unlock              0000000180012270 f   libucrt:locks.obj
 0001:0001128c       __acrt_get_developer_information_policy 000000018001228c f   libucrt:win_policies.obj
 0001:000112e0       __acrt_get_process_end_policy 00000001800122e0 f   libucrt:win_policies.obj
 0001:0001131c       __acrt_get_windowing_model_policy 000000018001231c f   libucrt:win_policies.obj
 0001:0001139c       ??$__acrt_mbs_to_wcs_cp@U__crt_win32_buffer_internal_dynamic_resizing@@@@YAHQEBDAEAV?$__crt_win32_buffer@_WU__crt_win32_buffer_internal_dynamic_resizing@@@@I@Z 000000018001239c f i libucrt:argv_wildcards.obj
 0001:00011514       ??$__acrt_wcs_to_mbs_cp@U__crt_win32_buffer_internal_dynamic_resizing@@@@YAHQEB_WAEAV?$__crt_win32_buffer@DU__crt_win32_buffer_internal_dynamic_resizing@@@@I@Z 0000000180012514 f i libucrt:argv_wildcards.obj
 0001:00011d44       __acrt_expand_narrow_argv_wildcards 0000000180012d44 f   libucrt:argv_wildcards.obj
 0001:00012478       __acrt_initialize_multibyte 0000000180013478 f   libucrt:mbctype.obj
 0001:000124d8       __acrt_update_thread_multibyte_data 00000001800134d8 f   libucrt:mbctype.obj
 0001:000124f4       _setmbcp_nolock            00000001800134f4 f   libucrt:mbctype.obj
 0001:00012828       _ismbblead                 0000000180013828 f   libucrt:ismbbyte.obj
 0001:0001283c       __acrt_initialize_command_line 000000018001383c f   libucrt:argv_data.obj
 0001:00012864       __acrt_MultiByteToWideChar 0000000180013864 f   libucrt:multibytetowidechar.obj
 0001:000128c0       __acrt_WideCharToMultiByte 00000001800138c0 f   libucrt:widechartomultibyte.obj
 0001:00012958       __dcrt_get_narrow_environment_from_os 0000000180013958 f   libucrt:get_environment_from_os.obj
 0001:00012a5c       _recalloc_base             0000000180013a5c f   libucrt:recalloc.obj
 0001:00012af4       __acrt_initialize_heap     0000000180013af4 f   libucrt:heap_handle.obj
 0001:00012b10       __acrt_uninitialize_heap   0000000180013b10 f   libucrt:heap_handle.obj
 0001:00012b1c       __acrt_execute_initializers 0000000180013b1c f   libucrt:shared_initialization.obj
 0001:00012b9c       __acrt_execute_uninitializers 0000000180013b9c f   libucrt:shared_initialization.obj
 0001:00012bd8       __acrt_has_user_matherr    0000000180013bd8 f   libucrt:matherr.obj
 0001:00012bf8       __acrt_initialize_user_matherr 0000000180013bf8 f   libucrt:matherr.obj
 0001:00012c00       __acrt_invoke_user_matherr 0000000180013c00 f   libucrt:matherr.obj
 0001:00012c30       __pctype_func              0000000180013c30 f   libucrt:ctype.obj
 0001:00012c60       iswctype                   0000000180013c60 f   libucrt:iswctype.obj
 0001:00012cd0       _isctype_l                 0000000180013cd0 f   libucrt:isctype.obj
 0001:00012de0       __acrt_lowio_create_handle_array 0000000180013de0 f   libucrt:osfinfo.obj
 0001:00012e88       __acrt_lowio_destroy_handle_array 0000000180013e88 f   libucrt:osfinfo.obj
 0001:00012ed8       __acrt_lowio_ensure_fh_exists 0000000180013ed8 f   libucrt:osfinfo.obj
 0001:00012f80       __acrt_lowio_lock_fh       0000000180013f80 f   libucrt:osfinfo.obj
 0001:00012fa8       __acrt_lowio_unlock_fh     0000000180013fa8 f   libucrt:osfinfo.obj
 0001:00012fd0       _free_osfhnd               0000000180013fd0 f   libucrt:osfinfo.obj
 0001:0001308c       _get_osfhandle             000000018001408c f   libucrt:osfinfo.obj
 0001:00013104       _isatty                    0000000180014104 f   libucrt:isatty.obj
 0001:000139d0       _write                     00000001800149d0 f   libucrt:write.obj
 0001:00013abc       _write_nolock              0000000180014abc f   libucrt:write.obj
 0001:00013f24       _lseeki64                  0000000180014f24 f   libucrt:lseek.obj
 0001:00013f2c       _lseeki64_nolock           0000000180014f2c f   libucrt:lseek.obj
 0001:00013f34       __acrt_stdio_allocate_buffer_nolock 0000000180014f34 f   libucrt:_getbuf.obj
 0001:00013f9c       _query_new_mode            0000000180014f9c f   libucrt:new_mode.obj
 0001:0001408c       __acrt_DownlevelLocaleNameToLCID 000000018001508c f   libucrt:lcidtoname_downlevel.obj
 0001:000140c0       _fclose_nolock             00000001800150c0 f   libucrt:fclose.obj
 0001:00014144       fclose                     0000000180015144 f   libucrt:fclose.obj
 0001:00014234       _commit                    0000000180015234 f   libucrt:commit.obj
 0001:000142c8       __acrt_add_locale_ref      00000001800152c8 f   libucrt:locale_refcounting.obj
 0001:00014354       __acrt_free_locale         0000000180015354 f   libucrt:locale_refcounting.obj
 0001:000144cc       __acrt_locale_add_lc_time_reference 00000001800154cc f   libucrt:locale_refcounting.obj
 0001:000144f4       __acrt_locale_free_lc_time_if_unreferenced 00000001800154f4 f   libucrt:locale_refcounting.obj
 0001:0001452c       __acrt_locale_release_lc_time_reference 000000018001552c f   libucrt:locale_refcounting.obj
 0001:00014554       __acrt_release_locale_ref  0000000180015554 f   libucrt:locale_refcounting.obj
 0001:000145fc       __acrt_update_thread_locale_data 00000001800155fc f   libucrt:locale_refcounting.obj
 0001:0001466c       _updatetlocinfoEx_nolock   000000018001566c f   libucrt:locale_refcounting.obj
 0001:000146d4       _isleadbyte_l              00000001800156d4 f i libucrt:_wctype.obj
 0001:00014a38       __acrt_LCMapStringA        0000000180015a38 f   libucrt:lcmapstringa.obj
 0001:00014ad0       ?__mbrtowc_utf8@__crt_mbstring@@YA_KPEA_WPEBD_KPEAU_Mbstatet@@@Z 0000000180015ad0 f   libucrt:mbrtowc.obj
 0001:00014b0c       ?__mbsrtowcs_utf8@__crt_mbstring@@YA_KPEA_WPEAPEBD_KPEAU_Mbstatet@@@Z 0000000180015b0c f   libucrt:mbrtowc.obj
 0001:00014c84       ?__c32rtomb_utf8@__crt_mbstring@@YA_KPEAD_UPEAU_Mbstatet@@@Z 0000000180015c84 f   libucrt:c32rtomb.obj
 0001:00014d3c       __acrt_fp_strflt_to_string 0000000180015d3c f   libucrt:_fptostr.obj
 0001:00014e20       ?divide@__crt_strtox@@YA_KAEAUbig_integer@1@AEBU21@@Z 0000000180015e20 f i libucrt:cfout.obj
 0001:0001524c       __acrt_fltout              000000018001624c f   libucrt:cfout.obj
 0001:00016508       __acrt_locale_free_monetary 0000000180017508 f   libucrt:initmon.obj
 0001:00016614       __acrt_locale_free_numeric 0000000180017614 f   libucrt:initnum.obj
 0001:000166d8       __acrt_locale_free_time    00000001800176d8 f   libucrt:inittime.obj
 0001:000167e0       __acrt_GetStringTypeA      00000001800177e0 f   libucrt:getstringtypea.obj
 0001:00016970       qsort                      0000000180017970 f   libucrt:qsort.obj
 0001:00016d30       strncpy_s                  0000000180017d30 f   libucrt:strncpy_s.obj
 0001:00016eb0       strpbrk                    0000000180017eb0 f   libucrt:strpbrk.obj
 0001:00017290       _mbsdec                    0000000180018290 f   libucrt:mbsdec.obj
 0001:00017298       _mbsdec_l                  0000000180018298 f   libucrt:mbsdec.obj
 0001:00017344       _msize_base                0000000180018344 f   libucrt:msize.obj
 0001:00017380       _realloc_base              0000000180018380 f   libucrt:realloc_base.obj
 0001:000173fc       __acrt_GetStringTypeW      00000001800183fc f   libucrt:getstringtypew.obj
 0001:00017404       _putwch_nolock             0000000180018404 f   libucrt:putwch.obj
 0001:000174b4       _close                     00000001800184b4 f   libucrt:close.obj
 0001:00017558       _close_nolock              0000000180018558 f   libucrt:close.obj
 0001:00017618       ?__acrt_stdio_free_stream@@YAXV__crt_stdio_stream@@@Z 0000000180018618 f   libucrt:stream.obj
 0001:00017634       __strncnt                  0000000180018634 f   libucrt:strncnt.obj
 0001:0001764c       ?__mbrtoc32_utf8@__crt_mbstring@@YA_KPEA_UPEBD_KPEAU_Mbstatet@@@Z 000000018001864c f   libucrt:mbrtoc32.obj
 0001:00017828       fegetenv                   0000000180018828 f   libucrt:fegetenv.obj
 0001:00017848       fesetenv                   0000000180018848 f   libucrt:fesetenv.obj
 0001:00017898       feholdexcept               0000000180018898 f   libucrt:feholdexcept.obj
 0001:000178e8       ceil                       00000001800188e8 f   libucrt:ceil.obj
 0001:000179b0       log10                      00000001800189b0 f   libucrt:log10.obj
 0001:00017f5c       __dcrt_lowio_ensure_console_output_initialized 0000000180018f5c f   libucrt:initcon.obj
 0001:00017fb0       __dcrt_terminate_console_output 0000000180018fb0 f   libucrt:initcon.obj
 0001:00017fcc       __dcrt_write_console       0000000180018fcc f   libucrt:initcon.obj
 0001:0001808c       __acrt_fenv_get_control    000000018001908c f   libucrt:_fenvutils.obj
 0001:00018180       __acrt_fenv_get_status     0000000180019180 f   libucrt:_fenvutils.obj
 0001:000181d4       __acrt_fenv_set_control    00000001800191d4 f   libucrt:_fenvutils.obj
 0001:0001831c       __acrt_fenv_set_status     000000018001931c f   libucrt:_fenvutils.obj
 0001:000183a0       _clearfp                   00000001800193a0 f   libucrt:ieee.obj
 0001:00018534       _handle_error              0000000180019534 f   libucrt:libm_error.obj
 0001:0001865c       _handle_errorf             000000018001965c f   libucrt:libm_error.obj
 0001:00018790       _handle_nan                0000000180019790 f   libucrt:libm_error.obj
 0001:000187ac       _handle_nanf               00000001800197ac f   libucrt:libm_error.obj
 0001:000187c0       __acrt_initialize_fma3     00000001800197c0 f   libucrt:fma3_available.obj
 0001:00018830       _log10_special             0000000180019830 f   libucrt:log_special.obj
 0001:00018900       _get_fpsr                  0000000180019900 f   libucrt:fpsr.obj
 0001:00018910       _set_fpsr                  0000000180019910 f   libucrt:fpsr.obj
 0001:0001891a       _fclrf                     000000018001991a f   libucrt:fpsr.obj
 0001:0001892e       _frnd                      000000018001992e f   libucrt:fpsr.obj
 0001:00018950       _raise_exc                 0000000180019950 f   libucrt:fpexcept.obj
 0001:00018978       _raise_exc_ex              0000000180019978 f   libucrt:fpexcept.obj
 0001:00018c88       _raise_excf                0000000180019c88 f   libucrt:fpexcept.obj
 0001:00018cb4       _set_errno_from_matherr    0000000180019cb4 f   libucrt:fpexcept.obj
 0001:00018ce4       _clrfp                     0000000180019ce4 f   libucrt:fpctrl.obj
 0001:00018d04       _ctrlfp                    0000000180019d04 f   libucrt:fpctrl.obj
 0001:00018d80       _set_statfp                0000000180019d80 f   libucrt:fpctrl.obj
 0001:00018da0       _statfp                    0000000180019da0 f   libucrt:fpctrl.obj
 0001:00018db1       IsProcessorFeaturePresent  0000000180019db1 f   kernel32:KERNEL32.dll
 0001:00018db8       ?DloadAcquireSectionWriteAccess@@YAXXZ 0000000180019db8 f i DelayImp:delayhlp.obj
 0001:00018e64       ?DloadGetSRWLockFunctionPointers@@YAEXZ 0000000180019e64 f i DelayImp:delayhlp.obj
 0001:00018f00       ?DloadMakePermanentImageCommit@@YAXPEAX_K@Z 0000000180019f00 f i DelayImp:delayhlp.obj
 0001:00018f98       ?DloadObtainSection@@YAPEAXPEAK0@Z 0000000180019f98 f i DelayImp:delayhlp.obj
 0001:00019034       ?DloadProtectSection@@YAXKPEAK@Z 000000018001a034 f i DelayImp:delayhlp.obj
 0001:000190c4       ?DloadReleaseSectionWriteAccess@@YAXXZ 000000018001a0c4 f i DelayImp:delayhlp.obj
 0001:00019158       __delayLoadHelper2         000000018001a158 f   DelayImp:delayhlp.obj
 0001:00019420       _FindPESection             000000018001a420 f   LIBCMT:pesect.obj
 0001:00019470       _IsNonwritableInCurrentImage 000000018001a470 f   LIBCMT:pesect.obj
 0001:000194c0       _ValidateImageBase         000000018001a4c0 f   LIBCMT:pesect.obj
 0001:000194f0       __GSHandlerCheck           000000018001a4f0 f   LIBCMT:gshandler.obj
 0001:00019510       __GSHandlerCheckCommon     000000018001a510 f   LIBCMT:gshandler.obj
 0001:00019580       __chkstk                   000000018001a580 f   LIBCMT:chkstk.obj
 0001:00019580       _alloca_probe              000000018001a580 f   LIBCMT:chkstk.obj
 0001:000195d4       strrchr                    000000018001a5d4 f   libvcruntime:strrchr.obj
 0001:00019730       memcmp                     000000018001a730 f   libvcruntime:memcmp.obj
 0001:000197f8       acosf                      000000018001a7f8 f   libucrt:acosf.obj
 0001:00019a50       cosf                       000000018001aa50 f   libucrt:cosf.obj
 0001:00019f50       floorf                     000000018001af50 f   libucrt:floorf.obj
 0001:00019fd0       sinf                       000000018001afd0 f   libucrt:sinf.obj
 0001:0001a6c8       sqrtf                      000000018001b6c8 f   libucrt:sqrtf.obj
 0001:0001a780       __remainder_piby2d2f_forAsm 000000018001b780 f   libucrt:remainder_piby2f_forasm.obj
 0001:0001a8d0       __remainder_piby2_fma3     000000018001b8d0 f   libucrt:remainder_piby2_forfma3.obj
 0001:0001aac0       __remainder_piby2_fma3_bdl 000000018001bac0 f   libucrt:remainder_piby2_forfma3.obj
 0001:0001ab38       _cosf_special              000000018001bb38 f   libucrt:sincos_special.obj
 0001:0001abd8       _sinf_special              000000018001bbd8 f   libucrt:sincos_special.obj
 0001:0001abf0       __remainder_piby2d2f_forC  000000018001bbf0 f   libucrt:remainder_piby2f_forc.obj
 0001:0001ad90       _guard_dispatch_icall_nop  000000018001bd90 f   LIBCMT:guard_dispatch.obj
 0002:00000000       __imp_GetModuleHandleA     000000018001c000     kernel32:KERNEL32.dll
 0002:00000008       __imp_LoadLibraryExA       000000018001c008     kernel32:KERNEL32.dll
 0002:00000010       __imp_RtlCaptureContext    000000018001c010     kernel32:KERNEL32.dll
 0002:00000018       __imp_RtlLookupFunctionEntry 000000018001c018     kernel32:KERNEL32.dll
 0002:00000020       __imp_RtlVirtualUnwind     000000018001c020     kernel32:KERNEL32.dll
 0002:00000028       __imp_UnhandledExceptionFilter 000000018001c028     kernel32:KERNEL32.dll
 0002:00000030       __imp_SetUnhandledExceptionFilter 000000018001c030     kernel32:KERNEL32.dll
 0002:00000038       __imp_GetCurrentProcess    000000018001c038     kernel32:KERNEL32.dll
 0002:00000040       __imp_TerminateProcess     000000018001c040     kernel32:KERNEL32.dll
 0002:00000048       __imp_IsProcessorFeaturePresent 000000018001c048     kernel32:KERNEL32.dll
 0002:00000050       __imp_QueryPerformanceCounter 000000018001c050     kernel32:KERNEL32.dll
 0002:00000058       __imp_GetCurrentProcessId  000000018001c058     kernel32:KERNEL32.dll
 0002:00000060       __imp_GetCurrentThreadId   000000018001c060     kernel32:KERNEL32.dll
 0002:00000068       __imp_GetSystemTimeAsFileTime 000000018001c068     kernel32:KERNEL32.dll
 0002:00000070       __imp_InitializeSListHead  000000018001c070     kernel32:KERNEL32.dll
 0002:00000078       __imp_IsDebuggerPresent    000000018001c078     kernel32:KERNEL32.dll
 0002:00000080       __imp_GetStartupInfoW      000000018001c080     kernel32:KERNEL32.dll
 0002:00000088       __imp_GetModuleHandleW     000000018001c088     kernel32:KERNEL32.dll
 0002:00000090       __imp_RtlPcToFileHeader    000000018001c090     kernel32:KERNEL32.dll
 0002:00000098       __imp_RaiseException       000000018001c098     kernel32:KERNEL32.dll
 0002:000000a0       __imp_RtlUnwindEx          000000018001c0a0     kernel32:KERNEL32.dll
 0002:000000a8       __imp_InterlockedFlushSList 000000018001c0a8     kernel32:KERNEL32.dll
 0002:000000b0       __imp_GetLastError         000000018001c0b0     kernel32:KERNEL32.dll
 0002:000000b8       __imp_SetLastError         000000018001c0b8     kernel32:KERNEL32.dll
 0002:000000c0       __imp_EnterCriticalSection 000000018001c0c0     kernel32:KERNEL32.dll
 0002:000000c8       __imp_LeaveCriticalSection 000000018001c0c8     kernel32:KERNEL32.dll
 0002:000000d0       __imp_DeleteCriticalSection 000000018001c0d0     kernel32:KERNEL32.dll
 0002:000000d8       __imp_InitializeCriticalSectionAndSpinCount 000000018001c0d8     kernel32:KERNEL32.dll
 0002:000000e0       __imp_TlsAlloc             000000018001c0e0     kernel32:KERNEL32.dll
 0002:000000e8       __imp_TlsGetValue          000000018001c0e8     kernel32:KERNEL32.dll
 0002:000000f0       __imp_TlsSetValue          000000018001c0f0     kernel32:KERNEL32.dll
 0002:000000f8       __imp_TlsFree              000000018001c0f8     kernel32:KERNEL32.dll
 0002:00000100       __imp_FreeLibrary          000000018001c100     kernel32:KERNEL32.dll
 0002:00000108       __imp_GetProcAddress       000000018001c108     kernel32:KERNEL32.dll
 0002:00000110       __imp_LoadLibraryExW       000000018001c110     kernel32:KERNEL32.dll
 0002:00000118       __imp_GetStdHandle         000000018001c118     kernel32:KERNEL32.dll
 0002:00000120       __imp_GetFileType          000000018001c120     kernel32:KERNEL32.dll
 0002:00000128       __imp_GetModuleFileNameW   000000018001c128     kernel32:KERNEL32.dll
 0002:00000130       __imp_GetModuleHandleExW   000000018001c130     kernel32:KERNEL32.dll
 0002:00000138       __imp_WriteConsoleW        000000018001c138     kernel32:KERNEL32.dll
 0002:00000140       __imp_ExitProcess          000000018001c140     kernel32:KERNEL32.dll
 0002:00000148       __imp_GetFileSizeEx        000000018001c148     kernel32:KERNEL32.dll
 0002:00000150       __imp_SetFilePointerEx     000000018001c150     kernel32:KERNEL32.dll
 0002:00000158       __imp_HeapAlloc            000000018001c158     kernel32:KERNEL32.dll
 0002:00000160       __imp_HeapFree             000000018001c160     kernel32:KERNEL32.dll
 0002:00000168       __imp_LCMapStringW         000000018001c168     kernel32:KERNEL32.dll
 0002:00000170       __imp_WriteFile            000000018001c170     kernel32:KERNEL32.dll
 0002:00000178       __imp_OutputDebugStringW   000000018001c178     kernel32:KERNEL32.dll
 0002:00000180       __imp_FindClose            000000018001c180     kernel32:KERNEL32.dll
 0002:00000188       __imp_FindFirstFileExW     000000018001c188     kernel32:KERNEL32.dll
 0002:00000190       __imp_FindNextFileW        000000018001c190     kernel32:KERNEL32.dll
 0002:00000198       __imp_IsValidCodePage      000000018001c198     kernel32:KERNEL32.dll
 0002:000001a0       __imp_GetACP               000000018001c1a0     kernel32:KERNEL32.dll
 0002:000001a8       __imp_GetOEMCP             000000018001c1a8     kernel32:KERNEL32.dll
 0002:000001b0       __imp_GetCPInfo            000000018001c1b0     kernel32:KERNEL32.dll
 0002:000001b8       __imp_GetCommandLineA      000000018001c1b8     kernel32:KERNEL32.dll
 0002:000001c0       __imp_GetCommandLineW      000000018001c1c0     kernel32:KERNEL32.dll
 0002:000001c8       __imp_MultiByteToWideChar  000000018001c1c8     kernel32:KERNEL32.dll
 0002:000001d0       __imp_WideCharToMultiByte  000000018001c1d0     kernel32:KERNEL32.dll
 0002:000001d8       __imp_GetEnvironmentStringsW 000000018001c1d8     kernel32:KERNEL32.dll
 0002:000001e0       __imp_FreeEnvironmentStringsW 000000018001c1e0     kernel32:KERNEL32.dll
 0002:000001e8       __imp_GetProcessHeap       000000018001c1e8     kernel32:KERNEL32.dll
 0002:000001f0       __imp_SetStdHandle         000000018001c1f0     kernel32:KERNEL32.dll
 0002:000001f8       __imp_GetConsoleCP         000000018001c1f8     kernel32:KERNEL32.dll
 0002:00000200       __imp_GetConsoleMode       000000018001c200     kernel32:KERNEL32.dll
 0002:00000208       __imp_FlushFileBuffers     000000018001c208     kernel32:KERNEL32.dll
 0002:00000210       __imp_GetStringTypeW       000000018001c210     kernel32:KERNEL32.dll
 0002:00000218       __imp_HeapSize             000000018001c218     kernel32:KERNEL32.dll
 0002:00000220       __imp_HeapReAlloc          000000018001c220     kernel32:KERNEL32.dll
 0002:00000228       __imp_CloseHandle          000000018001c228     kernel32:KERNEL32.dll
 0002:00000230       __imp_CreateFileW          000000018001c230     kernel32:KERNEL32.dll
 0002:00000238       __imp_GetSystemInfo        000000018001c238     kernel32:KERNEL32.dll
 0002:00000240       __imp_VirtualProtect       000000018001c240     kernel32:KERNEL32.dll
 0002:00000248       __imp_VirtualQuery         000000018001c248     kernel32:KERNEL32.dll
 0002:00000250       \177KERNEL32_NULL_THUNK_DATA 000000018001c250     kernel32:KERNEL32.dll
 0002:00000258       __guard_check_icall_fptr   000000018001c258     LIBCMT:guard_support.obj
 0002:00000260       __guard_dispatch_icall_fptr 000000018001c260     LIBCMT:guard_support.obj
 0002:00000268       __xc_a                     000000018001c268     LIBCMT:initializers.obj
 0002:000002a8       _register_an_              000000018001c2a8     node_module.obj
 0002:000002b0       __xc_z                     000000018001c2b0     LIBCMT:initializers.obj
 0002:000002b8       __xi_a                     000000018001c2b8     LIBCMT:initializers.obj
 0002:000002c0       __acrt_stdio_initializer   000000018001c2c0     libucrt:stdio_initializer.obj
 0002:000002c8       __acrt_multibyte_initializer 000000018001c2c8     libucrt:multibyte_initializer.obj
 0002:000002d0       __acrt_tran_fma3_initializer 000000018001c2d0     libucrt:fma3_initializer.obj
 0002:000002d8       __xi_z                     000000018001c2d8     LIBCMT:initializers.obj
 0002:000002e0       __xp_a                     000000018001c2e0     LIBCMT:initializers.obj
 0002:000002e8       __acrt_locale_terminator   000000018001c2e8     libucrt:locale_initializer.obj
 0002:000002f0       __dcrt_console_output_terminator 000000018001c2f0     libucrt:console_output_initializer.obj
 0002:000002f8       __acrt_stdio_terminator    000000018001c2f8     libucrt:stdio_initializer.obj
 0002:00000300       __xp_z                     000000018001c300     LIBCMT:initializers.obj
 0002:00000308       __xt_a                     000000018001c308     LIBCMT:initializers.obj
 0002:00000310       __xt_z                     000000018001c310     LIBCMT:initializers.obj
 0002:00000320       __sz_node_exe              000000018001c320     node:node.exe
 0002:00000338       ??_7exception@std@@6B@     000000018001c338     libcpmt:xthrow.obj
 0002:00000348       ??_C@_0BC@EOODALEL@Unknown?5exception@ 000000018001c348     libcpmt:xthrow.obj
 0002:00000368       ??_7bad_alloc@std@@6B@     000000018001c368     libcpmt:xthrow.obj
 0002:00000378       ??_C@_0P@GHFPNOJB@bad?5allocation@ 000000018001c378     libcpmt:xthrow.obj
 0002:00000390       ??_7logic_error@std@@6B@   000000018001c390     libcpmt:xthrow.obj
 0002:000003a8       ??_7length_error@std@@6B@  000000018001c3a8     libcpmt:xthrow.obj
 0002:000003b8       _pDefaultRawDllMain        000000018001c3b8     LIBCMT:dll_dllmain.obj
 0002:000003b8       _pRawDllMain               000000018001c3b8     LIBCMT:dll_dllmain.obj
 0002:000003c8       ??_7type_info@@6B@         000000018001c3c8     LIBCMT:std_type_info_static.obj
 0002:000003e8       ??_7bad_array_new_length@std@@6B@ 000000018001c3e8     LIBCMT:throw_bad_alloc.obj
 0002:000003f8       ??_C@_0BF@KINCDENJ@bad?5array?5new?5length@ 000000018001c3f8     LIBCMT:throw_bad_alloc.obj
 0002:00000450       _pDestructExceptionObject  000000018001c450     libvcruntime:ehhelpers.obj
 0002:00000798       ??_C@_08EHJDFFNH@__based?$CI@ 000000018001c798     libvcruntime:undname.obj
 0002:000007a8       ??_C@_07KOLFKCDI@__cdecl@  000000018001c7a8     libvcruntime:undname.obj
 0002:000007b0       ??_C@_08GHMPAG@__pascal@   000000018001c7b0     libvcruntime:undname.obj
 0002:000007c0       ??_C@_09IFJBGAPI@__stdcall@ 000000018001c7c0     libvcruntime:undname.obj
 0002:000007d0       ??_C@_0L@NPHFGOKO@__thiscall@ 000000018001c7d0     libvcruntime:undname.obj
 0002:000007e0       ??_C@_0L@JMKHOMEK@__fastcall@ 000000018001c7e0     libvcruntime:undname.obj
 0002:000007f0       ??_C@_0N@BCKKPABJ@__vectorcall@ 000000018001c7f0     libvcruntime:undname.obj
 0002:00000800       ??_C@_09HIJEGCPM@__clrcall@ 000000018001c800     libvcruntime:undname.obj
 0002:0000080c       ??_C@_06GHPCKEAG@__eabi@   000000018001c80c     libvcruntime:undname.obj
 0002:00000818       ??_C@_09IOPIDJLG@__swift_1@ 000000018001c818     libvcruntime:undname.obj
 0002:00000828       ??_C@_09KFNFGKHF@__swift_2@ 000000018001c828     libvcruntime:undname.obj
 0002:00000838       ??_C@_07JOMMBBKO@__ptr64@  000000018001c838     libvcruntime:undname.obj
 0002:00000840       ??_C@_0L@PILCLIHE@__restrict@ 000000018001c840     libvcruntime:undname.obj
 0002:00000850       ??_C@_0M@GFIIJFMG@__unaligned@ 000000018001c850     libvcruntime:undname.obj
 0002:00000860       ??_C@_09DHDLOLLB@restrict?$CI@ 000000018001c860     libvcruntime:undname.obj
 0002:0000086a       ??_C@_00CNPNBAHC@@         000000018001c86a     libvcruntime:undname.obj
 0002:0000086c       ??_C@_04NIHEBCM@?5new@     000000018001c86c     libvcruntime:undname.obj
 0002:00000878       ??_C@_07FPCDHGMM@?5delete@ 000000018001c878     libvcruntime:undname.obj
 0002:00000880       ??_C@_01NEMOKFLO@?$DN@     000000018001c880     libvcruntime:undname.obj
 0002:00000884       ??_C@_02GPIOPFAK@?$DO?$DO@ 000000018001c884     libvcruntime:undname.obj
 0002:00000888       ??_C@_02FODMEDOG@?$DM?$DM@ 000000018001c888     libvcruntime:undname.obj
 0002:0000088c       ??_C@_01DCLJPIOD@?$CB@     000000018001c88c     libvcruntime:undname.obj
 0002:00000890       ??_C@_02EGOFBIJA@?$DN?$DN@ 000000018001c890     libvcruntime:undname.obj
 0002:00000894       ??_C@_02FDNJECIE@?$CB?$DN@ 000000018001c894     libvcruntime:undname.obj
 0002:00000898       ??_C@_02GPECMEKF@?$FL?$FN@ 000000018001c898     libvcruntime:undname.obj
 0002:000008a0       ??_C@_08LHJFAFGD@operator@ 000000018001c8a0     libvcruntime:undname.obj
 0002:000008ac       ??_C@_02HBOOOICD@?9?$DO@   000000018001c8ac     libvcruntime:undname.obj
 0002:000008b0       ??_C@_01NBENCBCI@?$CK@     000000018001c8b0     libvcruntime:undname.obj
 0002:000008b4       ??_C@_02ECNGHCIF@?$CL?$CL@ 000000018001c8b4     libvcruntime:undname.obj
 0002:000008b8       ??_C@_02BAABKJLB@?9?9@     000000018001c8b8     libvcruntime:undname.obj
 0002:000008bc       ??_C@_01JOAMLHOP@?9@       000000018001c8bc     libvcruntime:undname.obj
 0002:000008c0       ??_C@_01MIFGBAGJ@?$CL@     000000018001c8c0     libvcruntime:undname.obj
 0002:000008c4       ??_C@_01HNPIGOCE@?$CG@     000000018001c8c4     libvcruntime:undname.obj
 0002:000008c8       ??_C@_03MNHNFDLC@?9?$DO?$CK@ 000000018001c8c8     libvcruntime:undname.obj
 0002:000008cc       ??_C@_01KMDKNFGN@?1@       000000018001c8cc     libvcruntime:undname.obj
 0002:000008d0       ??_C@_01FGNFDNOH@?$CF@     000000018001c8d0     libvcruntime:undname.obj
 0002:000008d4       ??_C@_01MNNFJEPP@?$DM@     000000018001c8d4     libvcruntime:undname.obj
 0002:000008d8       ??_C@_02EHCHHCKH@?$DM?$DN@ 000000018001c8d8     libvcruntime:undname.obj
 0002:000008dc       ??_C@_01PPODPGHN@?$DO@     000000018001c8dc     libvcruntime:undname.obj
 0002:000008e0       ??_C@_02EEKDKGMJ@?$DO?$DN@ 000000018001c8e0     libvcruntime:undname.obj
 0002:000008e4       ??_C@_01IHBHIGKO@?0@       000000018001c8e4     libvcruntime:undname.obj
 0002:000008e8       ??_C@_02HCKGKOFO@?$CI?$CJ@ 000000018001c8e8     libvcruntime:undname.obj
 0002:000008ec       ??_C@_01PJKLJHI@?$HO@      000000018001c8ec     libvcruntime:undname.obj
 0002:000008f0       ??_C@_01JKBOJNNK@?$FO@     000000018001c8f0     libvcruntime:undname.obj
 0002:000008f4       ??_C@_01DNKMNLPK@?$HM@     000000018001c8f4     libvcruntime:undname.obj
 0002:000008f8       ??_C@_02PPKAJPJL@?$CG?$CG@ 000000018001c8f8     libvcruntime:undname.obj
 0002:000008fc       ??_C@_02NONPIBCD@?$HM?$HM@ 000000018001c8fc     libvcruntime:undname.obj
 0002:00000900       ??_C@_02FPIMKNGF@?$CK?$DN@ 000000018001c900     libvcruntime:undname.obj
 0002:00000904       ??_C@_02FOEOMHFC@?$CL?$DN@ 000000018001c904     libvcruntime:undname.obj
 0002:00000908       ??_C@_02FKMDLLOA@?9?$DN@   000000018001c908     libvcruntime:undname.obj
 0002:0000090c       ??_C@_02FJEHGPIO@?1?$DN@   000000018001c90c     libvcruntime:undname.obj
 0002:00000910       ??_C@_02FENAOKFI@?$CF?$DN@ 000000018001c910     libvcruntime:undname.obj
 0002:00000914       ??_C@_03IKFCCPFF@?$DO?$DO?$DN@ 000000018001c914     libvcruntime:undname.obj
 0002:00000918       ??_C@_03CDNPDDLA@?$DM?$DM?$DN@ 000000018001c918     libvcruntime:undname.obj
 0002:0000091c       ??_C@_02FGJGFEAB@?$CG?$DN@ 000000018001c91c     libvcruntime:undname.obj
 0002:00000920       ??_C@_02DHLNPPGH@?$HM?$DN@ 000000018001c920     libvcruntime:undname.obj
 0002:00000924       ??_C@_02MHEGNOJ@?$FO?$DN@  000000018001c924     libvcruntime:undname.obj
 0002:00000928       ??_C@_09IFPLHPGF@?$GAvftable?8@ 000000018001c928     libvcruntime:undname.obj
 0002:00000938       ??_C@_09BLBHBJP@?$GAvbtable?8@ 000000018001c938     libvcruntime:undname.obj
 0002:00000948       ??_C@_07FEEIOKP@?$GAvcall?8@ 000000018001c948     libvcruntime:undname.obj
 0002:00000950       ??_C@_08LLFFHHDJ@?$GAtypeof?8@ 000000018001c950     libvcruntime:undname.obj
 0002:00000960       ??_C@_0BF@KDPPACIK@?$GAlocal?5static?5guard?8@ 000000018001c960     libvcruntime:undname.obj
 0002:00000978       ??_C@_08OBABFOLI@?$GAstring?8@ 000000018001c978     libvcruntime:undname.obj
 0002:00000988       ??_C@_0BD@JDLKDPAB@?$GAvbase?5destructor?8@ 000000018001c988     libvcruntime:undname.obj
 0002:000009a0       ??_C@_0BN@DEGPLNFK@?$GAvector?5deleting?5destructor?8@ 000000018001c9a0     libvcruntime:undname.obj
 0002:000009c0       ??_C@_0BO@OBMKPJIG@?$GAdefault?5constructor?5closure?8@ 000000018001c9c0     libvcruntime:undname.obj
 0002:000009e0       ??_C@_0BN@IMDCHIKM@?$GAscalar?5deleting?5destructor?8@ 000000018001c9e0     libvcruntime:undname.obj
 0002:00000a00       ??_C@_0BO@PFGOCPJJ@?$GAvector?5constructor?5iterator?8@ 000000018001ca00     libvcruntime:undname.obj
 0002:00000a20       ??_C@_0BN@LFPFMEDL@?$GAvector?5destructor?5iterator?8@ 000000018001ca20     libvcruntime:undname.obj
 0002:00000a40       ??_C@_0CE@IKBNEHA@?$GAvector?5vbase?5constructor?5itera@ 000000018001ca40     libvcruntime:undname.obj
 0002:00000a68       ??_C@_0BL@NILFHHPC@?$GAvirtual?5displacement?5map?8@ 000000018001ca68     libvcruntime:undname.obj
 0002:00000a88       ??_C@_0CB@JONCMFFK@?$GAeh?5vector?5constructor?5iterator@ 000000018001ca88     libvcruntime:undname.obj
 0002:00000ab0       ??_C@_0CA@GCEOPDGL@?$GAeh?5vector?5destructor?5iterator?8@ 000000018001cab0     libvcruntime:undname.obj
 0002:00000ad0       ??_C@_0CH@OOJPLCPH@?$GAeh?5vector?5vbase?5constructor?5it@ 000000018001cad0     libvcruntime:undname.obj
 0002:00000af8       ??_C@_0BL@LLKPOHJI@?$GAcopy?5constructor?5closure?8@ 000000018001caf8     libvcruntime:undname.obj
 0002:00000b18       ??_C@_0BA@KBCDOMBN@?$GAudt?5returning?8@ 000000018001cb18     libvcruntime:undname.obj
 0002:00000b28       ??_C@_03KLGMFNMG@?$GAEH@   000000018001cb28     libvcruntime:undname.obj
 0002:00000b2c       ??_C@_05KHLCHHI@?$GARTTI@  000000018001cb2c     libvcruntime:undname.obj
 0002:00000b38       ??_C@_0BA@KKLDJDLB@?$GAlocal?5vftable?8@ 000000018001cb38     libvcruntime:undname.obj
 0002:00000b48       ??_C@_0CE@IIHCMGGL@?$GAlocal?5vftable?5constructor?5clos@ 000000018001cb48     libvcruntime:undname.obj
 0002:00000b6c       ??_C@_06FHBGPFGH@?5new?$FL?$FN@ 000000018001cb6c     libvcruntime:undname.obj
 0002:00000b78       ??_C@_09LBNFPBCA@?5delete?$FL?$FN@ 000000018001cb78     libvcruntime:undname.obj
 0002:00000b88       ??_C@_0P@HJKNJFNN@?$GAomni?5callsig?8@ 000000018001cb88     libvcruntime:undname.obj
 0002:00000b98       ??_C@_0BL@CNOONJFP@?$GAplacement?5delete?5closure?8@ 000000018001cb98     libvcruntime:undname.obj
 0002:00000bb8       ??_C@_0BN@CKNJLHMB@?$GAplacement?5delete?$FL?$FN?5closure?8@ 000000018001cbb8     libvcruntime:undname.obj
 0002:00000bd8       ??_C@_0CG@CFDHKGGD@?$GAmanaged?5vector?5constructor?5ite@ 000000018001cbd8     libvcruntime:undname.obj
 0002:00000c00       ??_C@_0CF@IMGKMJNO@?$GAmanaged?5vector?5destructor?5iter@ 000000018001cc00     libvcruntime:undname.obj
 0002:00000c28       ??_C@_0CG@HLDDJMAG@?$GAeh?5vector?5copy?5constructor?5ite@ 000000018001cc28     libvcruntime:undname.obj
 0002:00000c50       ??_C@_0CM@FCBBDIGB@?$GAeh?5vector?5vbase?5copy?5construct@ 000000018001cc50     libvcruntime:undname.obj
 0002:00000c80       ??_C@_0BL@CLIPGLGB@?$GAdynamic?5initializer?5for?5?8@ 000000018001cc80     libvcruntime:undname.obj
 0002:00000ca0       ??_C@_0CB@PDBIFEP@?$GAdynamic?5atexit?5destructor?5for?5@ 000000018001cca0     libvcruntime:undname.obj
 0002:00000cc8       ??_C@_0CD@CGAJBKEJ@?$GAvector?5copy?5constructor?5iterat@ 000000018001ccc8     libvcruntime:undname.obj
 0002:00000cf0       ??_C@_0CJ@GJELGAMM@?$GAvector?5vbase?5copy?5constructor?5@ 000000018001ccf0     libvcruntime:undname.obj
 0002:00000d20       ??_C@_0CL@FGIJHLCE@?$GAmanaged?5vector?5copy?5constructo@ 000000018001cd20     libvcruntime:undname.obj
 0002:00000d50       ??_C@_0BM@PMGGMLDN@?$GAlocal?5static?5thread?5guard?8@ 000000018001cd50     libvcruntime:undname.obj
 0002:00000d70       ??_C@_0N@BDNMDMOL@operator?5?$CC?$CC?5@ 000000018001cd70     libvcruntime:undname.obj
 0002:00000d80       ??_C@_0BC@GGEBGALA@operator?5co_await@ 000000018001cd80     libvcruntime:undname.obj
 0002:00000d98       ??_C@_0BC@DAFEJGAK@?5Type?5Descriptor?8@ 000000018001cd98     libvcruntime:undname.obj
 0002:00000db0       ??_C@_0BM@LDKODKLH@?5Base?5Class?5Descriptor?5at?5?$CI@ 000000018001cdb0     libvcruntime:undname.obj
 0002:00000dd0       ??_C@_0BD@LGICGFMM@?5Base?5Class?5Array?8@ 000000018001cdd0     libvcruntime:undname.obj
 0002:00000de8       ??_C@_0BN@MECKDCOJ@?5Class?5Hierarchy?5Descriptor?8@ 000000018001cde8     libvcruntime:undname.obj
 0002:00000e08       ??_C@_0BK@CFCOFLF@?5Complete?5Object?5Locator?8@ 000000018001ce08     libvcruntime:undname.obj
 0002:00000e40       ??_C@_1DM@KHCHBNEB@?$AAa?$AAp?$AAi?$AA?9?$AAm?$AAs?$AA?9?$AAw?$AAi?$AAn?$AA?9?$AAc?$AAo?$AAr?$AAe@ 000000018001ce40     libvcruntime:winapi_downlevel.obj
 0002:00000e80       ??_C@_1DK@LPPGFMPP@?$AAa?$AAp?$AAi?$AA?9?$AAm?$AAs?$AA?9?$AAw?$AAi?$AAn?$AA?9?$AAc?$AAo?$AAr?$AAe@ 000000018001ce80     libvcruntime:winapi_downlevel.obj
 0002:00000ec0       ??_C@_1BC@GDMECMAK@?$AAk?$AAe?$AAr?$AAn?$AAe?$AAl?$AA3?$AA2@ 000000018001cec0     libvcruntime:winapi_downlevel.obj
 0002:00000ed8       ??_C@_1BA@PFFKHIOG@?$AAa?$AAp?$AAi?$AA?9?$AAm?$AAs?$AA?9@ 000000018001ced8     libvcruntime:winapi_downlevel.obj
 0002:00000ee8       ??_C@_1BA@IAIFMGEF@?$AAe?$AAx?$AAt?$AA?9?$AAm?$AAs?$AA?9@ 000000018001cee8     libvcruntime:winapi_downlevel.obj
 0002:00000f00       ??_C@_08KNHFBNJ@FlsAlloc@  000000018001cf00     libvcruntime:winapi_downlevel.obj
 0002:00000f18       ??_C@_07PEJMOBNF@FlsFree@  000000018001cf18     libvcruntime:winapi_downlevel.obj
 0002:00000f28       ??_C@_0M@GDNOONDI@FlsGetValue@ 000000018001cf28     libvcruntime:winapi_downlevel.obj
 0002:00000f40       ??_C@_0M@JCPCPOEF@FlsSetValue@ 000000018001cf40     libvcruntime:winapi_downlevel.obj
 0002:00000f58       ??_C@_0BM@HCFOFFN@InitializeCriticalSectionEx@ 000000018001cf58     libvcruntime:winapi_downlevel.obj
 0002:00000f80       standard_lookup_table      000000018001cf80     libucrt:output.obj
 0002:00000fe0       ??_C@_1O@CEDCILHN@?$AA?$CI?$AAn?$AAu?$AAl?$AAl?$AA?$CJ?$AA?$AA@ 000000018001cfe0     libucrt:output.obj
 0002:00000ff0       ??_C@_06OJHGLDPL@?$CInull?$CJ?$AA@ 000000018001cff0     libucrt:output.obj
 0002:00001000       ??_C@_1FE@LHBLIKM@?$AAA?$AAs?$AAs?$AAe?$AAr?$AAt?$AAi?$AAo?$AAn?$AA?5?$AAf?$AAa?$AAi?$AAl?$AAe?$AAd?$AA?3?$AA?5?$AA?$CF?$AAT?$AAs?$AA?0?$AA?5?$AAf?$AAi?$AAl?$AAe?$AA?5?$AA?$CF?$AAT?$AAs?$AA?0@ 000000018001d000     libucrt:assert.obj
 0002:00001060       ??_C@_1EK@MBDPDCGA@?$AAM?$AAi?$AAc?$AAr?$AAo?$AAs?$AAo?$AAf?$AAt?$AA?5?$AAV?$AAi?$AAs?$AAu?$AAa?$AAl?$AA?5?$AAC?$AA?$CL?$AA?$CL?$AA?5?$AAR?$AAu?$AAn?$AAt?$AAi?$AAm?$AAe?$AA?5?$AAL?$AAi?$AAb@ 000000018001d060     libucrt:assert.obj
 0002:000010b0       ??_C@_1CE@OJBNHDMO@?$AAA?$AAs?$AAs?$AAe?$AAr?$AAt?$AAi?$AAo?$AAn?$AA?5?$AAf?$AAa?$AAi?$AAl?$AAe?$AAd?$AA?$CB?$AA?$AA@ 000000018001d0b0     libucrt:assert.obj
 0002:000010d8       ??_C@_1BE@PHKBBGE@?$AAP?$AAr?$AAo?$AAg?$AAr?$AAa?$AAm?$AA?3?$AA?5?$AA?$AA@ 000000018001d0d8     libucrt:assert.obj
 0002:000010f0       ??_C@_1O@HEMHKNDC@?$AAF?$AAi?$AAl?$AAe?$AA?3?$AA?5?$AA?$AA@ 000000018001d0f0     libucrt:assert.obj
 0002:00001100       ??_C@_1O@KCAFKHJE@?$AAL?$AAi?$AAn?$AAe?$AA?3?$AA?5?$AA?$AA@ 000000018001d100     libucrt:assert.obj
 0002:00001110       ??_C@_1BK@PEDCIPMA@?$AAE?$AAx?$AAp?$AAr?$AAe?$AAs?$AAs?$AAi?$AAo?$AAn?$AA?3?$AA?5?$AA?$AA@ 000000018001d110     libucrt:assert.obj
 0002:00001130       ??_C@_1OA@EGMLFBHJ@?$AAF?$AAo?$AAr?$AA?5?$AAi?$AAn?$AAf?$AAo?$AAr?$AAm?$AAa?$AAt?$AAi?$AAo?$AAn?$AA?5?$AAo?$AAn?$AA?5?$AAh?$AAo?$AAw?$AA?5?$AAy?$AAo?$AAu?$AAr?$AA?5?$AAp?$AAr?$AAo?$AAg@ 000000018001d130     libucrt:assert.obj
 0002:00001210       ??_C@_1HK@POCJMFGK@?$AA?$CI?$AAP?$AAr?$AAe?$AAs?$AAs?$AA?5?$AAR?$AAe?$AAt?$AAr?$AAy?$AA?5?$AAt?$AAo?$AA?5?$AAd?$AAe?$AAb?$AAu?$AAg?$AA?5?$AAt?$AAh?$AAe?$AA?5?$AAa?$AAp?$AAp?$AAl?$AAi?$AAc@ 000000018001d210     libucrt:assert.obj
 0002:00001290       ??_C@_17LGKOMLJ@?$AA?4?$AA?4?$AA?4?$AA?$AA@ 000000018001d290     libucrt:assert.obj
 0002:00001298       ??_C@_13LBAGMAIH@?$AA?6?$AA?$AA@ 000000018001d298     libucrt:assert.obj
 0002:0000129c       ??_C@_15IABLJNFO@?$AA?6?$AA?6?$AA?$AA@ 000000018001d29c     libucrt:assert.obj
 0002:000012a8       ??_C@_1CO@EAEJAADC@?$AA?$DM?$AAp?$AAr?$AAo?$AAg?$AAr?$AAa?$AAm?$AA?5?$AAn?$AAa?$AAm?$AAe?$AA?5?$AAu?$AAn?$AAk?$AAn?$AAo?$AAw?$AAn?$AA?$DO?$AA?$AA@ 000000018001d2a8     libucrt:assert.obj
 0002:000012e0       __acrt_exception_action_table 000000018001d2e0     libucrt:exception_filter.obj
 0002:000013a0       __acrt_signal_action_table_count 000000018001d3a0     libucrt:exception_filter.obj
 0002:000013a8       __acrt_signal_action_first_fpe_index 000000018001d3a8     libucrt:exception_filter.obj
 0002:000013b0       __acrt_signal_action_fpe_count 000000018001d3b0     libucrt:exception_filter.obj
 0002:000013b8       ??_C@_1BI@BGOHAHKC@?$AAm?$AAs?$AAc?$AAo?$AAr?$AAe?$AAe?$AA?4?$AAd?$AAl?$AAl?$AA?$AA@ 000000018001d3b8     libucrt:exit.obj
 0002:000013d0       ??_C@_0P@MIGLKIOC@CorExitProcess?$AA@ 000000018001d3d0     libucrt:exit.obj
 0002:000016f0       ??_C@_1EA@JGEFHKEI@?$AAa?$AAp?$AAi?$AA?9?$AAm?$AAs?$AA?9?$AAw?$AAi?$AAn?$AA?9?$AAc?$AAo?$AAr?$AAe?$AA?9?$AAd?$AAa?$AAt?$AAe?$AAt?$AAi?$AAm?$AAe?$AA?9?$AAl?$AA1?$AA?9?$AA1?$AA?9?$AA1?$AA?$AA@ 000000018001d6f0     libucrt:winapi_thunks.obj
 0002:00001730       ??_C@_1DM@KHCHBNEB@?$AAa?$AAp?$AAi?$AA?9?$AAm?$AAs?$AA?9?$AAw?$AAi?$AAn?$AA?9?$AAc?$AAo?$AAr?$AAe?$AA?9?$AAf?$AAi?$AAb?$AAe?$AAr?$AAs?$AA?9?$AAl?$AA1?$AA?9?$AA1?$AA?9?$AA1?$AA?$AA@ 000000018001d730     libucrt:winapi_thunks.obj
 0002:00001770       ??_C@_1DI@IJCEHOCB@?$AAa?$AAp?$AAi?$AA?9?$AAm?$AAs?$AA?9?$AAw?$AAi?$AAn?$AA?9?$AAc?$AAo?$AAr?$AAe?$AA?9?$AAf?$AAi?$AAl?$AAe?$AA?9?$AAl?$AA1?$AA?9?$AA2?$AA?9?$AA2?$AA?$AA@ 000000018001d770     libucrt:winapi_thunks.obj
 0002:000017b0       ??_C@_1EI@MPIAOHOC@?$AAa?$AAp?$AAi?$AA?9?$AAm?$AAs?$AA?9?$AAw?$AAi?$AAn?$AA?9?$AAc?$AAo?$AAr?$AAe?$AA?9?$AAl?$AAo?$AAc?$AAa?$AAl?$AAi?$AAz?$AAa?$AAt?$AAi?$AAo?$AAn?$AA?9?$AAl?$AA1?$AA?9@ 000000018001d7b0     libucrt:winapi_thunks.obj
 0002:00001800       ??_C@_1FK@FPHCKFIE@?$AAa?$AAp?$AAi?$AA?9?$AAm?$AAs?$AA?9?$AAw?$AAi?$AAn?$AA?9?$AAc?$AAo?$AAr?$AAe?$AA?9?$AAl?$AAo?$AAc?$AAa?$AAl?$AAi?$AAz?$AAa?$AAt?$AAi?$AAo?$AAn?$AA?9?$AAo?$AAb?$AAs@ 000000018001d800     libucrt:winapi_thunks.obj
 0002:00001860       ??_C@_1EM@DILCGIIO@?$AAa?$AAp?$AAi?$AA?9?$AAm?$AAs?$AA?9?$AAw?$AAi?$AAn?$AA?9?$AAc?$AAo?$AAr?$AAe?$AA?9?$AAp?$AAr?$AAo?$AAc?$AAe?$AAs?$AAs?$AAt?$AAh?$AAr?$AAe?$AAa?$AAd?$AAs?$AA?9?$AAl@ 000000018001d860     libucrt:winapi_thunks.obj
 0002:000018b0       ??_C@_1DM@LNCGDDPN@?$AAa?$AAp?$AAi?$AA?9?$AAm?$AAs?$AA?9?$AAw?$AAi?$AAn?$AA?9?$AAc?$AAo?$AAr?$AAe?$AA?9?$AAs?$AAt?$AAr?$AAi?$AAn?$AAg?$AA?9?$AAl?$AA1?$AA?9?$AA1?$AA?9?$AA0?$AA?$AA@ 000000018001d8b0     libucrt:winapi_thunks.obj
 0002:000018f0       ??_C@_1DK@LPPGFMPP@?$AAa?$AAp?$AAi?$AA?9?$AAm?$AAs?$AA?9?$AAw?$AAi?$AAn?$AA?9?$AAc?$AAo?$AAr?$AAe?$AA?9?$AAs?$AAy?$AAn?$AAc?$AAh?$AA?9?$AAl?$AA1?$AA?9?$AA2?$AA?9?$AA0?$AA?$AA@ 000000018001d8f0     libucrt:winapi_thunks.obj
 0002:00001930       ??_C@_1DO@FPAPJEMD@?$AAa?$AAp?$AAi?$AA?9?$AAm?$AAs?$AA?9?$AAw?$AAi?$AAn?$AA?9?$AAc?$AAo?$AAr?$AAe?$AA?9?$AAs?$AAy?$AAs?$AAi?$AAn?$AAf?$AAo?$AA?9?$AAl?$AA1?$AA?9?$AA2?$AA?9?$AA1?$AA?$AA@ 000000018001d930     libucrt:winapi_thunks.obj
 0002:00001970       ??_C@_1DK@NDHNAHIO@?$AAa?$AAp?$AAi?$AA?9?$AAm?$AAs?$AA?9?$AAw?$AAi?$AAn?$AA?9?$AAc?$AAo?$AAr?$AAe?$AA?9?$AAw?$AAi?$AAn?$AAr?$AAt?$AA?9?$AAl?$AA1?$AA?9?$AA1?$AA?9?$AA0?$AA?$AA@ 000000018001d970     libucrt:winapi_thunks.obj
 0002:000019b0       ??_C@_1DM@KGHDGBCM@?$AAa?$AAp?$AAi?$AA?9?$AAm?$AAs?$AA?9?$AAw?$AAi?$AAn?$AA?9?$AAc?$AAo?$AAr?$AAe?$AA?9?$AAx?$AAs?$AAt?$AAa?$AAt?$AAe?$AA?9?$AAl?$AA2?$AA?9?$AA1?$AA?9?$AA0?$AA?$AA@ 000000018001d9b0     libucrt:winapi_thunks.obj
 0002:000019f0       ??_C@_1EO@IJIOEFOH@?$AAa?$AAp?$AAi?$AA?9?$AAm?$AAs?$AA?9?$AAw?$AAi?$AAn?$AA?9?$AAr?$AAt?$AAc?$AAo?$AAr?$AAe?$AA?9?$AAn?$AAt?$AAu?$AAs?$AAe?$AAr?$AA?9?$AAw?$AAi?$AAn?$AAd?$AAo?$AAw?$AA?9@ 000000018001d9f0     libucrt:winapi_thunks.obj
 0002:00001a40       ??_C@_1FG@HHGEKANL@?$AAa?$AAp?$AAi?$AA?9?$AAm?$AAs?$AA?9?$AAw?$AAi?$AAn?$AA?9?$AAs?$AAe?$AAc?$AAu?$AAr?$AAi?$AAt?$AAy?$AA?9?$AAs?$AAy?$AAs?$AAt?$AAe?$AAm?$AAf?$AAu?$AAn?$AAc?$AAt?$AAi@ 000000018001da40     libucrt:winapi_thunks.obj
 0002:00001aa0       ??_C@_1EG@DBIOJECG@?$AAe?$AAx?$AAt?$AA?9?$AAm?$AAs?$AA?9?$AAw?$AAi?$AAn?$AA?9?$AAn?$AAt?$AAu?$AAs?$AAe?$AAr?$AA?9?$AAd?$AAi?$AAa?$AAl?$AAo?$AAg?$AAb?$AAo?$AAx?$AA?9?$AAl?$AA1?$AA?9?$AA1@ 000000018001daa0     libucrt:winapi_thunks.obj
 0002:00001af0       ??_C@_1EO@FIHMJCLF@?$AAe?$AAx?$AAt?$AA?9?$AAm?$AAs?$AA?9?$AAw?$AAi?$AAn?$AA?9?$AAn?$AAt?$AAu?$AAs?$AAe?$AAr?$AA?9?$AAw?$AAi?$AAn?$AAd?$AAo?$AAw?$AAs?$AAt?$AAa?$AAt?$AAi?$AAo?$AAn?$AA?9@ 000000018001daf0     libucrt:winapi_thunks.obj
 0002:00001b40       ??_C@_1BC@DNHGCMLG@?$AAa?$AAd?$AAv?$AAa?$AAp?$AAi?$AA3?$AA2?$AA?$AA@ 000000018001db40     libucrt:winapi_thunks.obj
 0002:00001b58       ??_C@_1BC@GDMECMAK@?$AAk?$AAe?$AAr?$AAn?$AAe?$AAl?$AA3?$AA2?$AA?$AA@ 000000018001db58     libucrt:winapi_thunks.obj
 0002:00001b70       ??_C@_1M@OAIMIKLP@?$AAn?$AAt?$AAd?$AAl?$AAl?$AA?$AA@ 000000018001db70     libucrt:winapi_thunks.obj
 0002:00001b80       ??_C@_1EG@DPGNFKGC@?$AAa?$AAp?$AAi?$AA?9?$AAm?$AAs?$AA?9?$AAw?$AAi?$AAn?$AA?9?$AAa?$AAp?$AAp?$AAm?$AAo?$AAd?$AAe?$AAl?$AA?9?$AAr?$AAu?$AAn?$AAt?$AAi?$AAm?$AAe?$AA?9?$AAl?$AA1?$AA?9?$AA1@ 000000018001db80     libucrt:winapi_thunks.obj
 0002:00001bc8       ??_C@_1O@BCCLBEOE@?$AAu?$AAs?$AAe?$AAr?$AA3?$AA2?$AA?$AA@ 000000018001dbc8     libucrt:winapi_thunks.obj
 0002:00001bd8       ??_C@_1BA@PFFKHIOG@?$AAa?$AAp?$AAi?$AA?9?$AAm?$AAs?$AA?9?$AA?$AA@ 000000018001dbd8     libucrt:winapi_thunks.obj
 0002:00001be8       ??_C@_1BA@IAIFMGEF@?$AAe?$AAx?$AAt?$AA?9?$AAm?$AAs?$AA?9?$AA?$AA@ 000000018001dbe8     libucrt:winapi_thunks.obj
 0002:00001c00       ??_C@_0BA@FHFNEAED@AreFileApisANSI?$AA@ 000000018001dc00     libucrt:winapi_thunks.obj
 0002:00001c18       ??_C@_08KNHFBNJ@FlsAlloc?$AA@ 000000018001dc18     libucrt:winapi_thunks.obj
 0002:00001c30       ??_C@_07PEJMOBNF@FlsFree?$AA@ 000000018001dc30     libucrt:winapi_thunks.obj
 0002:00001c40       ??_C@_0M@GDNOONDI@FlsGetValue?$AA@ 000000018001dc40     libucrt:winapi_thunks.obj
 0002:00001c58       ??_C@_0M@JCPCPOEF@FlsSetValue?$AA@ 000000018001dc58     libucrt:winapi_thunks.obj
 0002:00001c70       ??_C@_0BA@HNOPNCHB@GetActiveWindow?$AA@ 000000018001dc70     libucrt:winapi_thunks.obj
 0002:00001c88       ??_C@_0BD@HHGDFDBJ@GetLastActivePopup?$AA@ 000000018001dc88     libucrt:winapi_thunks.obj
 0002:00001ca8       ??_C@_0BI@DFKBFLJE@GetProcessWindowStation?$AA@ 000000018001dca8     libucrt:winapi_thunks.obj
 0002:00001cc8       ??_C@_0BK@DEKFELLI@GetUserObjectInformationW?$AA@ 000000018001dcc8     libucrt:winapi_thunks.obj
 0002:00001cf0       ??_C@_0BM@HCFOFFN@InitializeCriticalSectionEx?$AA@ 000000018001dcf0     libucrt:winapi_thunks.obj
 0002:00001d18       ??_C@_0O@KKBNKAPF@LCMapStringEx?$AA@ 000000018001dd18     libucrt:winapi_thunks.obj
 0002:00001d30       ??_C@_0BB@HBDEELFH@LocaleNameToLCID?$AA@ 000000018001dd30     libucrt:winapi_thunks.obj
 0002:00001d50       ??_C@_0M@CHKKJDAI@MessageBoxA?$AA@ 000000018001dd50     libucrt:winapi_thunks.obj
 0002:00001d68       ??_C@_0M@DLDCCGNP@MessageBoxW?$AA@ 000000018001dd68     libucrt:winapi_thunks.obj
 0002:00001d78       ??_C@_0CF@OJOFEIGO@AppPolicyGetProcessTerminationMe@ 000000018001dd78     libucrt:winapi_thunks.obj
 0002:00001da8       ??_C@_0CE@OICFMIKE@AppPolicyGetShowDeveloperDiagnos@ 000000018001dda8     libucrt:winapi_thunks.obj
 0002:00001dd0       ??_C@_0BL@ODDJNEDA@AppPolicyGetWindowingModel?$AA@ 000000018001ddd0     libucrt:winapi_thunks.obj
 0002:00001dec       ??_C@_03OEIAHPBN@INF?$AA@  000000018001ddec     libucrt:cvt.obj
 0002:00001df0       ??_C@_03OJHLLCGB@inf?$AA@  000000018001ddf0     libucrt:cvt.obj
 0002:00001df4       ??_C@_03LKNCIKJB@NAN?$AA@  000000018001ddf4     libucrt:cvt.obj
 0002:00001df8       ??_C@_03LHCJEHON@nan?$AA@  000000018001ddf8     libucrt:cvt.obj
 0002:00001e00       ??_C@_09OFJJIMPC@NAN?$CISNAN?$CJ?$AA@ 000000018001de00     libucrt:cvt.obj
 0002:00001e10       ??_C@_09IPFBKMDL@nan?$CIsnan?$CJ?$AA@ 000000018001de10     libucrt:cvt.obj
 0002:00001e20       ??_C@_08IKHNHAJ@NAN?$CIIND?$CJ?$AA@ 000000018001de20     libucrt:cvt.obj
 0002:00001e30       ??_C@_08OFCDMILK@nan?$CIind?$CJ?$AA@ 000000018001de30     libucrt:cvt.obj
 0002:00001e3c       ??_C@_05KLBDPFGC@e?$CL000?$AA@ 000000018001de3c     libucrt:cvt.obj
 0002:00001e50       __lc_time_c                000000018001de50     libucrt:nlsdata.obj
 0002:00002110       ??_C@_03KOEHGMDN@Sun?$AA@  000000018001e110     libucrt:nlsdata.obj
 0002:00002114       ??_C@_03PDAGKDH@Mon?$AA@   000000018001e114     libucrt:nlsdata.obj
 0002:00002118       ??_C@_03NAGEINEP@Tue?$AA@  000000018001e118     libucrt:nlsdata.obj
 0002:0000211c       ??_C@_03MHOMLAJA@Wed?$AA@  000000018001e11c     libucrt:nlsdata.obj
 0002:00002120       ??_C@_03IOFIKPDN@Thu?$AA@  000000018001e120     libucrt:nlsdata.obj
 0002:00002124       ??_C@_03IDIOELNC@Fri?$AA@  000000018001e124     libucrt:nlsdata.obj
 0002:00002128       ??_C@_03FEFJNEK@Sat?$AA@   000000018001e128     libucrt:nlsdata.obj
 0002:0000212c       ??_C@_06OOPIFAJ@Sunday?$AA@ 000000018001e12c     libucrt:nlsdata.obj
 0002:00002134       ??_C@_06JLEDEDGH@Monday?$AA@ 000000018001e134     libucrt:nlsdata.obj
 0002:00002140       ??_C@_07BAAGCFCM@Tuesday?$AA@ 000000018001e140     libucrt:nlsdata.obj
 0002:00002148       ??_C@_09DLIGFAKA@Wednesday?$AA@ 000000018001e148     libucrt:nlsdata.obj
 0002:00002158       ??_C@_08HACCIKIA@Thursday?$AA@ 000000018001e158     libucrt:nlsdata.obj
 0002:00002164       ??_C@_06JECMNKMI@Friday?$AA@ 000000018001e164     libucrt:nlsdata.obj
 0002:00002170       ??_C@_08INBOOONO@Saturday?$AA@ 000000018001e170     libucrt:nlsdata.obj
 0002:0000217c       ??_C@_03JIHJHPIE@Jan?$AA@  000000018001e17c     libucrt:nlsdata.obj
 0002:00002180       ??_C@_03HJBDCHOM@Feb?$AA@  000000018001e180     libucrt:nlsdata.obj
 0002:00002184       ??_C@_03ODNJBKGA@Mar?$AA@  000000018001e184     libucrt:nlsdata.obj
 0002:00002188       ??_C@_03LEOLGMJP@Apr?$AA@  000000018001e188     libucrt:nlsdata.obj
 0002:0000218c       ??_C@_03CNMDKL@May?$AA@    000000018001e18c     libucrt:nlsdata.obj
 0002:00002190       ??_C@_03IDFGHECI@Jun?$AA@  000000018001e190     libucrt:nlsdata.obj
 0002:00002194       ??_C@_03LBGABGKK@Jul?$AA@  000000018001e194     libucrt:nlsdata.obj
 0002:00002198       ??_C@_03IFJFEIGA@Aug?$AA@  000000018001e198     libucrt:nlsdata.obj
 0002:0000219c       ??_C@_03GGCAPAJC@Sep?$AA@  000000018001e19c     libucrt:nlsdata.obj
 0002:000021a0       ??_C@_03BMAOKBAD@Oct?$AA@  000000018001e1a0     libucrt:nlsdata.obj
 0002:000021a4       ??_C@_03JPJOFNIA@Nov?$AA@  000000018001e1a4     libucrt:nlsdata.obj
 0002:000021a8       ??_C@_03MKABNOCG@Dec?$AA@  000000018001e1a8     libucrt:nlsdata.obj
 0002:000021b0       ??_C@_07CGJPFGJA@January?$AA@ 000000018001e1b0     libucrt:nlsdata.obj
 0002:000021b8       ??_C@_08GNJGEPFN@February?$AA@ 000000018001e1b8     libucrt:nlsdata.obj
 0002:000021c4       ??_C@_05HPCKOFNC@March?$AA@ 000000018001e1c4     libucrt:nlsdata.obj
 0002:000021cc       ??_C@_05DMJDNLEJ@April?$AA@ 000000018001e1cc     libucrt:nlsdata.obj
 0002:000021d4       ??_C@_04CNLMGBGM@June?$AA@ 000000018001e1d4     libucrt:nlsdata.obj
 0002:000021dc       ??_C@_04MIEPOIFP@July?$AA@ 000000018001e1dc     libucrt:nlsdata.obj
 0002:000021e4       ??_C@_06LBBHFDDG@August?$AA@ 000000018001e1e4     libucrt:nlsdata.obj
 0002:000021f0       ??_C@_09BHHEALKD@September?$AA@ 000000018001e1f0     libucrt:nlsdata.obj
 0002:00002200       ??_C@_07JJNFCEND@October?$AA@ 000000018001e200     libucrt:nlsdata.obj
 0002:00002208       ??_C@_08HCHEGEOA@November?$AA@ 000000018001e208     libucrt:nlsdata.obj
 0002:00002218       ??_C@_08EDHMEBNP@December?$AA@ 000000018001e218     libucrt:nlsdata.obj
 0002:00002224       ??_C@_02DEDBPAFC@AM?$AA@   000000018001e224     libucrt:nlsdata.obj
 0002:00002228       ??_C@_02CJNFDJBF@PM?$AA@   000000018001e228     libucrt:nlsdata.obj
 0002:00002230       ??_C@_08BPBNCDIB@MM?1dd?1yy?$AA@ 000000018001e230     libucrt:nlsdata.obj
 0002:00002240       ??_C@_0BE@CKGJFCPC@dddd?0?5MMMM?5dd?0?5yyyy?$AA@ 000000018001e240     libucrt:nlsdata.obj
 0002:00002258       ??_C@_08JCCMCCIL@HH?3mm?3ss?$AA@ 000000018001e258     libucrt:nlsdata.obj
 0002:00002268       ??_C@_17MBGCMIPB@?$AAS?$AAu?$AAn?$AA?$AA@ 000000018001e268     libucrt:nlsdata.obj
 0002:00002270       ??_C@_17KBOMKBF@?$AAM?$AAo?$AAn?$AA?$AA@ 000000018001e270     libucrt:nlsdata.obj
 0002:00002278       ??_C@_17BMKGEGOJ@?$AAT?$AAu?$AAe?$AA?$AA@ 000000018001e278     libucrt:nlsdata.obj
 0002:00002280       ??_C@_17CJEDCEPE@?$AAW?$AAe?$AAd?$AA?$AA@ 000000018001e280     libucrt:nlsdata.obj
 0002:00002288       ??_C@_17PDPHAADD@?$AAT?$AAh?$AAu?$AA?$AA@ 000000018001e288     libucrt:nlsdata.obj
 0002:00002290       ??_C@_17HFOLPPLP@?$AAF?$AAr?$AAi?$AA?$AA@ 000000018001e290     libucrt:nlsdata.obj
 0002:00002298       ??_C@_17GGIBDPIH@?$AAS?$AAa?$AAt?$AA?$AA@ 000000018001e298     libucrt:nlsdata.obj
 0002:000022a0       ??_C@_1O@IHNHDHPB@?$AAS?$AAu?$AAn?$AAd?$AAa?$AAy?$AA?$AA@ 000000018001e2a0     libucrt:nlsdata.obj
 0002:000022b0       ??_C@_1O@MMNBFLIA@?$AAM?$AAo?$AAn?$AAd?$AAa?$AAy?$AA?$AA@ 000000018001e2b0     libucrt:nlsdata.obj
 0002:000022c0       ??_C@_1BA@ENFBFFEK@?$AAT?$AAu?$AAe?$AAs?$AAd?$AAa?$AAy?$AA?$AA@ 000000018001e2c0     libucrt:nlsdata.obj
 0002:000022d0       ??_C@_1BE@EBOGMDOH@?$AAW?$AAe?$AAd?$AAn?$AAe?$AAs?$AAd?$AAa?$AAy?$AA?$AA@ 000000018001e2d0     libucrt:nlsdata.obj
 0002:000022e8       ??_C@_1BC@HHMNLIHE@?$AAT?$AAh?$AAu?$AAr?$AAs?$AAd?$AAa?$AAy?$AA?$AA@ 000000018001e2e8     libucrt:nlsdata.obj
 0002:00002300       ??_C@_1O@PDICJHAG@?$AAF?$AAr?$AAi?$AAd?$AAa?$AAy?$AA?$AA@ 000000018001e300     libucrt:nlsdata.obj
 0002:00002310       ??_C@_1BC@ENMNNPAJ@?$AAS?$AAa?$AAt?$AAu?$AAr?$AAd?$AAa?$AAy?$AA?$AA@ 000000018001e310     libucrt:nlsdata.obj
 0002:00002328       ??_C@_17DKNBKCHM@?$AAJ?$AAa?$AAn?$AA?$AA@ 000000018001e328     libucrt:nlsdata.obj
 0002:00002330       ??_C@_17LMDJEKJN@?$AAF?$AAe?$AAb?$AA?$AA@ 000000018001e330     libucrt:nlsdata.obj
 0002:00002338       ??_C@_17CKNLEDEC@?$AAM?$AAa?$AAr?$AA?$AA@ 000000018001e338     libucrt:nlsdata.obj
 0002:00002340       ??_C@_17LFPOIHDD@?$AAA?$AAp?$AAr?$AA?$AA@ 000000018001e340     libucrt:nlsdata.obj
 0002:00002348       ??_C@_17PNNKMEED@?$AAM?$AAa?$AAy?$AA?$AA@ 000000018001e348     libucrt:nlsdata.obj
 0002:00002350       ??_C@_17KCJGOCPB@?$AAJ?$AAu?$AAn?$AA?$AA@ 000000018001e350     libucrt:nlsdata.obj
 0002:00002358       ??_C@_17IJPCKHK@?$AAJ?$AAu?$AAl?$AA?$AA@ 000000018001e358     libucrt:nlsdata.obj
 0002:00002360       ??_C@_17ICPELBCN@?$AAA?$AAu?$AAg?$AA?$AA@ 000000018001e360     libucrt:nlsdata.obj
 0002:00002368       ??_C@_17HCHCOKMG@?$AAS?$AAe?$AAp?$AA?$AA@ 000000018001e368     libucrt:nlsdata.obj
 0002:00002370       ??_C@_17FNLKOI@?$AAO?$AAc?$AAt?$AA?$AA@ 000000018001e370     libucrt:nlsdata.obj
 0002:00002378       ??_C@_17BBDMLCIG@?$AAN?$AAo?$AAv?$AA?$AA@ 000000018001e378     libucrt:nlsdata.obj
 0002:00002380       ??_C@_17EGKACKIF@?$AAD?$AAe?$AAc?$AA?$AA@ 000000018001e380     libucrt:nlsdata.obj
 0002:00002388       ??_C@_1BA@EFMEIEBA@?$AAJ?$AAa?$AAn?$AAu?$AAa?$AAr?$AAy?$AA?$AA@ 000000018001e388     libucrt:nlsdata.obj
 0002:00002398       ??_C@_1BC@JGDDFFAM@?$AAF?$AAe?$AAb?$AAr?$AAu?$AAa?$AAr?$AAy?$AA?$AA@ 000000018001e398     libucrt:nlsdata.obj
 0002:000023b0       ??_C@_1M@IKEENEDF@?$AAM?$AAa?$AAr?$AAc?$AAh?$AA?$AA@ 000000018001e3b0     libucrt:nlsdata.obj
 0002:000023c0       ??_C@_1M@GJNLMHFD@?$AAA?$AAp?$AAr?$AAi?$AAl?$AA?$AA@ 000000018001e3c0     libucrt:nlsdata.obj
 0002:000023d0       ??_C@_19EPFLPGAP@?$AAJ?$AAu?$AAn?$AAe?$AA?$AA@ 000000018001e3d0     libucrt:nlsdata.obj
 0002:000023e0       ??_C@_19BIFMLPCD@?$AAJ?$AAu?$AAl?$AAy?$AA?$AA@ 000000018001e3e0     libucrt:nlsdata.obj
 0002:000023f0       ??_C@_1O@PAHLKOAC@?$AAA?$AAu?$AAg?$AAu?$AAs?$AAt?$AA?$AA@ 000000018001e3f0     libucrt:nlsdata.obj
 0002:00002400       ??_C@_1BE@DKAAMBJL@?$AAS?$AAe?$AAp?$AAt?$AAe?$AAm?$AAb?$AAe?$AAr?$AA?$AA@ 000000018001e400     libucrt:nlsdata.obj
 0002:00002418       ??_C@_1BA@EPANDLNG@?$AAO?$AAc?$AAt?$AAo?$AAb?$AAe?$AAr?$AA?$AA@ 000000018001e418     libucrt:nlsdata.obj
 0002:00002428       ??_C@_1BC@BGLIFPF@?$AAN?$AAo?$AAv?$AAe?$AAm?$AAb?$AAe?$AAr?$AA?$AA@ 000000018001e428     libucrt:nlsdata.obj
 0002:00002440       ??_C@_1BC@FEMKIFH@?$AAD?$AAe?$AAc?$AAe?$AAm?$AAb?$AAe?$AAr?$AA?$AA@ 000000018001e440     libucrt:nlsdata.obj
 0002:00002454       ??_C@_15ODEHAHHF@?$AAA?$AAM?$AA?$AA@ 000000018001e454     libucrt:nlsdata.obj
 0002:0000245c       ??_C@_15CLMNNGEL@?$AAP?$AAM?$AA?$AA@ 000000018001e45c     libucrt:nlsdata.obj
 0002:00002468       ??_C@_1BC@IEBCMHCM@?$AAM?$AAM?$AA?1?$AAd?$AAd?$AA?1?$AAy?$AAy?$AA?$AA@ 000000018001e468     libucrt:nlsdata.obj
 0002:00002480       ??_C@_1CI@KNAKOEBC@?$AAd?$AAd?$AAd?$AAd?$AA?0?$AA?5?$AAM?$AAM?$AAM?$AAM?$AA?5?$AAd?$AAd?$AA?0?$AA?5?$AAy?$AAy?$AAy?$AAy?$AA?$AA@ 000000018001e480     libucrt:nlsdata.obj
 0002:000024a8       ??_C@_1BC@GDGBMEMK@?$AAH?$AAH?$AA?3?$AAm?$AAm?$AA?3?$AAs?$AAs?$AA?$AA@ 000000018001e4a8     libucrt:nlsdata.obj
 0002:000024c0       ??_C@_1M@BMHNFIME@?$AAe?$AAn?$AA?9?$AAU?$AAS?$AA?$AA@ 000000018001e4c0     libucrt:nlsdata.obj
 0002:000024f0       ??_C@_1M@HPNHIDJI@?$AAj?$AAa?$AA?9?$AAJ?$AAP?$AA?$AA@ 000000018001e4f0     libucrt:mbctype.obj
 0002:00002500       ??_C@_1M@BIBDDEMK@?$AAz?$AAh?$AA?9?$AAC?$AAN?$AA?$AA@ 000000018001e500     libucrt:mbctype.obj
 0002:00002510       ??_C@_1M@JLOOOEGK@?$AAk?$AAo?$AA?9?$AAK?$AAR?$AA?$AA@ 000000018001e510     libucrt:mbctype.obj
 0002:00002520       ??_C@_1M@CLNBBOPM@?$AAz?$AAh?$AA?9?$AAT?$AAW?$AA?$AA@ 000000018001e520     libucrt:mbctype.obj
 0002:00002530       __newctype                 000000018001e530     libucrt:ctype.obj
 0002:00002830       __newclmap                 000000018001e830     libucrt:ctype.obj
 0002:000029b0       __newcumap                 000000018001e9b0     libucrt:ctype.obj
 0002:00002b30       _wctype                    000000018001eb30     libucrt:ctype.obj
 0002:00003b80       ??_C@_15EMKDOKLE@?$AAa?$AAr?$AA?$AA@ 000000018001fb80     libucrt:lcidtoname_downlevel.obj
 0002:00003b88       ??_C@_15KNPADPLH@?$AAb?$AAg?$AA?$AA@ 000000018001fb88     libucrt:lcidtoname_downlevel.obj
 0002:00003b90       ??_C@_15EDMHLDMO@?$AAc?$AAa?$AA?$AA@ 000000018001fb90     libucrt:lcidtoname_downlevel.obj
 0002:00003b98       ??_C@_1O@BPEAJADD@?$AAz?$AAh?$AA?9?$AAC?$AAH?$AAS?$AA?$AA@ 000000018001fb98     libucrt:lcidtoname_downlevel.obj
 0002:00003ba8       ??_C@_15LJNHCMNK@?$AAc?$AAs?$AA?$AA@ 000000018001fba8     libucrt:lcidtoname_downlevel.obj
 0002:00003bb0       ??_C@_15FOMCIDHG@?$AAd?$AAa?$AA?$AA@ 000000018001fbb0     libucrt:lcidtoname_downlevel.obj
 0002:00003bb8       ??_C@_15NBKABECB@?$AAd?$AAe?$AA?$AA@ 000000018001fbb8     libucrt:lcidtoname_downlevel.obj
 0002:00003bc0       ??_C@_15GHPEIIAO@?$AAe?$AAl?$AA?$AA@ 000000018001fbc0     libucrt:lcidtoname_downlevel.obj
 0002:00003bc8       ??_C@_15MNPNEAIF@?$AAe?$AAn?$AA?$AA@ 000000018001fbc8     libucrt:lcidtoname_downlevel.obj
 0002:00003bd0       ??_C@_15GPIOMPMH@?$AAe?$AAs?$AA?$AA@ 000000018001fbd0     libucrt:lcidtoname_downlevel.obj
 0002:00003bd8       ??_C@_15NGLOAKJC@?$AAf?$AAi?$AA?$AA@ 000000018001fbd8     libucrt:lcidtoname_downlevel.obj
 0002:00003be0       ??_C@_15FBKGNKAM@?$AAf?$AAr?$AA?$AA@ 000000018001fbe0     libucrt:lcidtoname_downlevel.obj
 0002:00003be8       ??_C@_15KGGCNEFK@?$AAh?$AAe?$AA?$AA@ 000000018001fbe8     libucrt:lcidtoname_downlevel.obj
 0002:00003bf0       ??_C@_15PGHLIDMF@?$AAh?$AAu?$AA?$AA@ 000000018001fbf0     libucrt:lcidtoname_downlevel.obj
 0002:00003bf8       ??_C@_15BIEMAPLM@?$AAi?$AAs?$AA?$AA@ 000000018001fbf8     libucrt:lcidtoname_downlevel.obj
 0002:00003c00       ??_C@_15IFJLDHAF@?$AAi?$AAt?$AA?$AA@ 000000018001fc00     libucrt:lcidtoname_downlevel.obj
 0002:00003c08       ??_C@_15GEMIOCAG@?$AAj?$AAa?$AA?$AA@ 000000018001fc08     libucrt:lcidtoname_downlevel.obj
 0002:00003c10       ??_C@_15EPELEGJA@?$AAk?$AAo?$AA?$AA@ 000000018001fc10     libucrt:lcidtoname_downlevel.obj
 0002:00003c18       ??_C@_15NDDHIMN@?$AAn?$AAl?$AA?$AA@ 000000018001fc18     libucrt:lcidtoname_downlevel.obj
 0002:00003c20       ??_C@_15BPIGNHCD@?$AAn?$AAo?$AA?$AA@ 000000018001fc20     libucrt:lcidtoname_downlevel.obj
 0002:00003c28       ??_C@_15DEOPBLCG@?$AAp?$AAl?$AA?$AA@ 000000018001fc28     libucrt:lcidtoname_downlevel.obj
 0002:00003c30       ??_C@_15KBECGEFG@?$AAp?$AAt?$AA?$AA@ 000000018001fc30     libucrt:lcidtoname_downlevel.obj
 0002:00003c38       ??_C@_15GLJCBFMD@?$AAr?$AAo?$AA?$AA@ 000000018001fc38     libucrt:lcidtoname_downlevel.obj
 0002:00003c40       ??_C@_15FEDGKCDI@?$AAr?$AAu?$AA?$AA@ 000000018001fc40     libucrt:lcidtoname_downlevel.obj
 0002:00003c48       ??_C@_15GLKMLLHM@?$AAh?$AAr?$AA?$AA@ 000000018001fc48     libucrt:lcidtoname_downlevel.obj
 0002:00003c50       ??_C@_15CPKMFBDB@?$AAs?$AAk?$AA?$AA@ 000000018001fc50     libucrt:lcidtoname_downlevel.obj
 0002:00003c58       ??_C@_15BAAIOGMK@?$AAs?$AAq?$AA?$AA@ 000000018001fc58     libucrt:lcidtoname_downlevel.obj
 0002:00003c60       ??_C@_15INNPNOHD@?$AAs?$AAv?$AA?$AA@ 000000018001fc60     libucrt:lcidtoname_downlevel.obj
 0002:00003c68       ??_C@_15CABMMOGH@?$AAt?$AAh?$AA?$AA@ 000000018001fc68     libucrt:lcidtoname_downlevel.obj
 0002:00003c70       ??_C@_15BPLIHJJM@?$AAt?$AAr?$AA?$AA@ 000000018001fc70     libucrt:lcidtoname_downlevel.obj
 0002:00003c78       ??_C@_15NEOEKKDJ@?$AAu?$AAr?$AA?$AA@ 000000018001fc78     libucrt:lcidtoname_downlevel.obj
 0002:00003c80       ??_C@_15NFICGAJK@?$AAi?$AAd?$AA?$AA@ 000000018001fc80     libucrt:lcidtoname_downlevel.obj
 0002:00003c88       ??_C@_15PJPFLCCM@?$AAu?$AAk?$AA?$AA@ 000000018001fc88     libucrt:lcidtoname_downlevel.obj
 0002:00003c90       ??_C@_15HPJPHDM@?$AAb?$AAe?$AA?$AA@ 000000018001fc90     libucrt:lcidtoname_downlevel.obj
 0002:00003c98       ??_C@_15LCHLGJII@?$AAs?$AAl?$AA?$AA@ 000000018001fc98     libucrt:lcidtoname_downlevel.obj
 0002:00003ca0       ??_C@_15PCFJPHHO@?$AAe?$AAt?$AA?$AA@ 000000018001fca0     libucrt:lcidtoname_downlevel.obj
 0002:00003ca8       ??_C@_15HPFPGODN@?$AAl?$AAv?$AA?$AA@ 000000018001fca8     libucrt:lcidtoname_downlevel.obj
 0002:00003cb0       ??_C@_15NFFGKGLG@?$AAl?$AAt?$AA?$AA@ 000000018001fcb0     libucrt:lcidtoname_downlevel.obj
 0002:00003cb8       ??_C@_15BDAKCCHN@?$AAf?$AAa?$AA?$AA@ 000000018001fcb8     libucrt:lcidtoname_downlevel.obj
 0002:00003cc0       ??_C@_15NFGIAIAJ@?$AAv?$AAi?$AA?$AA@ 000000018001fcc0     libucrt:lcidtoname_downlevel.obj
 0002:00003cc8       ??_C@_15LMKNDMHN@?$AAh?$AAy?$AA?$AA@ 000000018001fcc8     libucrt:lcidtoname_downlevel.obj
 0002:00003cd0       ??_C@_15IJBHMCFL@?$AAa?$AAz?$AA?$AA@ 000000018001fcd0     libucrt:lcidtoname_downlevel.obj
 0002:00003cd8       ??_C@_15EKOFJABL@?$AAe?$AAu?$AA?$AA@ 000000018001fcd8     libucrt:lcidtoname_downlevel.obj
 0002:00003ce0       ??_C@_15BGHADCNK@?$AAm?$AAk?$AA?$AA@ 000000018001fce0     libucrt:lcidtoname_downlevel.obj
 0002:00003ce8       ??_C@_15JDNICKHM@?$AAa?$AAf?$AA?$AA@ 000000018001fce8     libucrt:lcidtoname_downlevel.obj
 0002:00003cf0       ??_C@_15KPJEDBKD@?$AAk?$AAa?$AA?$AA@ 000000018001fcf0     libucrt:lcidtoname_downlevel.obj
 0002:00003cf8       ??_C@_15PDNFFFEO@?$AAf?$AAo?$AA?$AA@ 000000018001fcf8     libucrt:lcidtoname_downlevel.obj
 0002:00003d00       ??_C@_15OMLEGLOC@?$AAh?$AAi?$AA?$AA@ 000000018001fd00     libucrt:lcidtoname_downlevel.obj
 0002:00003d08       ??_C@_15IDNNENKK@?$AAm?$AAs?$AA?$AA@ 000000018001fd08     libucrt:lcidtoname_downlevel.obj
 0002:00003d10       ??_C@_15MACJNBMH@?$AAk?$AAk?$AA?$AA@ 000000018001fd10     libucrt:lcidtoname_downlevel.obj
 0002:00003d18       ??_C@_15DKDJEOND@?$AAk?$AAy?$AA?$AA@ 000000018001fd18     libucrt:lcidtoname_downlevel.obj
 0002:00003d20       ??_C@_15DFGDLJBG@?$AAs?$AAw?$AA?$AA@ 000000018001fd20     libucrt:lcidtoname_downlevel.obj
 0002:00003d28       ??_C@_15BBFAICNG@?$AAu?$AAz?$AA?$AA@ 000000018001fd28     libucrt:lcidtoname_downlevel.obj
 0002:00003d30       ??_C@_15DKNDCGEA@?$AAt?$AAt?$AA?$AA@ 000000018001fd30     libucrt:lcidtoname_downlevel.obj
 0002:00003d38       ??_C@_15MGIFMDPL@?$AAp?$AAa?$AA?$AA@ 000000018001fd38     libucrt:lcidtoname_downlevel.obj
 0002:00003d40       ??_C@_15HCNDBBA@?$AAg?$AAu?$AA?$AA@ 000000018001fd40     libucrt:lcidtoname_downlevel.obj
 0002:00003d48       ??_C@_15FNBEIBON@?$AAt?$AAa?$AA?$AA@ 000000018001fd48     libucrt:lcidtoname_downlevel.obj
 0002:00003d50       ??_C@_15NCHGBGLK@?$AAt?$AAe?$AA?$AA@ 000000018001fd50     libucrt:lcidtoname_downlevel.obj
 0002:00003d58       ??_C@_15PHPHCBPF@?$AAk?$AAn?$AA?$AA@ 000000018001fd58     libucrt:lcidtoname_downlevel.obj
 0002:00003d60       ??_C@_15DLGBCKMP@?$AAm?$AAr?$AA?$AA@ 000000018001fd60     libucrt:lcidtoname_downlevel.obj
 0002:00003d68       ??_C@_15EABBLBFF@?$AAs?$AAa?$AA?$AA@ 000000018001fd68     libucrt:lcidtoname_downlevel.obj
 0002:00003d70       ??_C@_15CBKOMCOI@?$AAm?$AAn?$AA?$AA@ 000000018001fd70     libucrt:lcidtoname_downlevel.obj
 0002:00003d78       ??_C@_15CKDMCJAF@?$AAg?$AAl?$AA?$AA@ 000000018001fd78     libucrt:lcidtoname_downlevel.obj
 0002:00003d80       ??_C@_17CNJFBPG@?$AAk?$AAo?$AAk?$AA?$AA@ 000000018001fd80     libucrt:lcidtoname_downlevel.obj
 0002:00003d88       ??_C@_17FFBJICPL@?$AAs?$AAy?$AAr?$AA?$AA@ 000000018001fd88     libucrt:lcidtoname_downlevel.obj
 0002:00003d90       ??_C@_17KPNDCPAF@?$AAd?$AAi?$AAv?$AA?$AA@ 000000018001fd90     libucrt:lcidtoname_downlevel.obj
 0002:00003d98       ??_C@_11LOCGONAA@?$AA?$AA@ 000000018001fd98     libucrt:lcidtoname_downlevel.obj
 0002:00003da0       ??_C@_1M@OKAHONE@?$AAa?$AAr?$AA?9?$AAS?$AAA?$AA?$AA@ 000000018001fda0     libucrt:lcidtoname_downlevel.obj
 0002:00003db0       ??_C@_1M@FFFIGIGK@?$AAb?$AAg?$AA?9?$AAB?$AAG?$AA?$AA@ 000000018001fdb0     libucrt:lcidtoname_downlevel.obj
 0002:00003dc0       ??_C@_1M@BJNKEDC@?$AAc?$AAa?$AA?9?$AAE?$AAS?$AA?$AA@ 000000018001fdc0     libucrt:lcidtoname_downlevel.obj
 0002:00003dd0       ??_C@_1M@IJJHFJHA@?$AAc?$AAs?$AA?9?$AAC?$AAZ?$AA?$AA@ 000000018001fdd0     libucrt:lcidtoname_downlevel.obj
 0002:00003de0       ??_C@_1M@CLPEOBGI@?$AAd?$AAa?$AA?9?$AAD?$AAK?$AA?$AA@ 000000018001fde0     libucrt:lcidtoname_downlevel.obj
 0002:00003df0       ??_C@_1M@MCMADGCB@?$AAd?$AAe?$AA?9?$AAD?$AAE?$AA?$AA@ 000000018001fdf0     libucrt:lcidtoname_downlevel.obj
 0002:00003e00       ??_C@_1M@OOCKEMAM@?$AAe?$AAl?$AA?9?$AAG?$AAR?$AA?$AA@ 000000018001fe00     libucrt:lcidtoname_downlevel.obj
 0002:00003e10       ??_C@_1M@DDNJFGID@?$AAf?$AAi?$AA?9?$AAF?$AAI?$AA?$AA@ 000000018001fe10     libucrt:lcidtoname_downlevel.obj
 0002:00003e20       ??_C@_1M@GLIPPMAC@?$AAf?$AAr?$AA?9?$AAF?$AAR?$AA?$AA@ 000000018001fe20     libucrt:lcidtoname_downlevel.obj
 0002:00003e30       ??_C@_1M@GFMCHPE@?$AAh?$AAe?$AA?9?$AAI?$AAL?$AA?$AA@ 000000018001fe30     libucrt:lcidtoname_downlevel.obj
 0002:00003e40       ??_C@_1M@MHLPGNKM@?$AAh?$AAu?$AA?9?$AAH?$AAU?$AA?$AA@ 000000018001fe40     libucrt:lcidtoname_downlevel.obj
 0002:00003e50       ??_C@_1M@LPDDNNPN@?$AAi?$AAs?$AA?9?$AAI?$AAS?$AA?$AA@ 000000018001fe50     libucrt:lcidtoname_downlevel.obj
 0002:00003e60       ??_C@_1M@MADIPODN@?$AAi?$AAt?$AA?9?$AAI?$AAT?$AA?$AA@ 000000018001fe60     libucrt:lcidtoname_downlevel.obj
 0002:00003e70       ??_C@_1M@IHBJJGG@?$AAn?$AAl?$AA?9?$AAN?$AAL?$AA?$AA@ 000000018001fe70     libucrt:lcidtoname_downlevel.obj
 0002:00003e80       ??_C@_1M@EANAGDL@?$AAn?$AAb?$AA?9?$AAN?$AAO?$AA?$AA@ 000000018001fe80     libucrt:lcidtoname_downlevel.obj
 0002:00003e90       ??_C@_1M@NEIEMEGP@?$AAp?$AAl?$AA?9?$AAP?$AAL?$AA?$AA@ 000000018001fe90     libucrt:lcidtoname_downlevel.obj
 0002:00003ea0       ??_C@_1M@BOCFIGEP@?$AAp?$AAt?$AA?9?$AAB?$AAR?$AA?$AA@ 000000018001fea0     libucrt:lcidtoname_downlevel.obj
 0002:00003eb0       ??_C@_1M@IMPFOPBG@?$AAr?$AAo?$AA?9?$AAR?$AAO?$AA?$AA@ 000000018001feb0     libucrt:lcidtoname_downlevel.obj
 0002:00003ec0       ??_C@_1M@IDNNEJMM@?$AAr?$AAu?$AA?9?$AAR?$AAU?$AA?$AA@ 000000018001fec0     libucrt:lcidtoname_downlevel.obj
 0002:00003ed0       ??_C@_1M@LILEEOGM@?$AAh?$AAr?$AA?9?$AAH?$AAR?$AA?$AA@ 000000018001fed0     libucrt:lcidtoname_downlevel.obj
 0002:00003ee0       ??_C@_1M@FKIFEHPB@?$AAs?$AAk?$AA?9?$AAS?$AAK?$AA?$AA@ 000000018001fee0     libucrt:lcidtoname_downlevel.obj
 0002:00003ef0       ??_C@_1M@LJMAMNPJ@?$AAs?$AAq?$AA?9?$AAA?$AAL?$AA?$AA@ 000000018001fef0     libucrt:lcidtoname_downlevel.obj
 0002:00003f00       ??_C@_1M@GIAKDKJK@?$AAs?$AAv?$AA?9?$AAS?$AAE?$AA?$AA@ 000000018001ff00     libucrt:lcidtoname_downlevel.obj
 0002:00003f10       ??_C@_1M@MKJKIKCL@?$AAt?$AAh?$AA?9?$AAT?$AAH?$AA?$AA@ 000000018001ff10     libucrt:lcidtoname_downlevel.obj
 0002:00003f20       ??_C@_1M@MFLCCMPB@?$AAt?$AAr?$AA?9?$AAT?$AAR?$AA?$AA@ 000000018001ff20     libucrt:lcidtoname_downlevel.obj
 0002:00003f30       ??_C@_1M@OIJHDKJN@?$AAu?$AAr?$AA?9?$AAP?$AAK?$AA?$AA@ 000000018001ff30     libucrt:lcidtoname_downlevel.obj
 0002:00003f40       ??_C@_1M@LHIPCIEK@?$AAi?$AAd?$AA?9?$AAI?$AAD?$AA?$AA@ 000000018001ff40     libucrt:lcidtoname_downlevel.obj
 0002:00003f50       ??_C@_1M@MFMOBGI@?$AAu?$AAk?$AA?9?$AAU?$AAA?$AA?$AA@ 000000018001ff50     libucrt:lcidtoname_downlevel.obj
 0002:00003f60       ??_C@_1M@OBGLJIPL@?$AAb?$AAe?$AA?9?$AAB?$AAY?$AA?$AA@ 000000018001ff60     libucrt:lcidtoname_downlevel.obj
 0002:00003f70       ??_C@_1M@BCFAJEAD@?$AAs?$AAl?$AA?9?$AAS?$AAI?$AA?$AA@ 000000018001ff70     libucrt:lcidtoname_downlevel.obj
 0002:00003f80       ??_C@_1M@FKFFEDDN@?$AAe?$AAt?$AA?9?$AAE?$AAE?$AA?$AA@ 000000018001ff80     libucrt:lcidtoname_downlevel.obj
 0002:00003f90       ??_C@_1M@KGKKAACI@?$AAl?$AAv?$AA?9?$AAL?$AAV?$AA?$AA@ 000000018001ff90     libucrt:lcidtoname_downlevel.obj
 0002:00003fa0       ??_C@_1M@IFGBIJO@?$AAl?$AAt?$AA?9?$AAL?$AAT?$AA?$AA@ 000000018001ffa0     libucrt:lcidtoname_downlevel.obj
 0002:00003fb0       ??_C@_1M@FGEAHEDM@?$AAf?$AAa?$AA?9?$AAI?$AAR?$AA?$AA@ 000000018001ffb0     libucrt:lcidtoname_downlevel.obj
 0002:00003fc0       ??_C@_1M@KBMAIBFN@?$AAv?$AAi?$AA?9?$AAV?$AAN?$AA?$AA@ 000000018001ffc0     libucrt:lcidtoname_downlevel.obj
 0002:00003fd0       ??_C@_1M@GPCBKDJK@?$AAh?$AAy?$AA?9?$AAA?$AAM?$AA?$AA@ 000000018001ffd0     libucrt:lcidtoname_downlevel.obj
 0002:00003fe0       ??_C@_1BG@BECMDDJB@?$AAa?$AAz?$AA?9?$AAA?$AAZ?$AA?9?$AAL?$AAa?$AAt?$AAn?$AA?$AA@ 000000018001ffe0     libucrt:lcidtoname_downlevel.obj
 0002:00003ff8       ??_C@_1M@MAOFCAEA@?$AAe?$AAu?$AA?9?$AAE?$AAS?$AA?$AA@ 000000018001fff8     libucrt:lcidtoname_downlevel.obj
 0002:00004008       ??_C@_1M@IGHABKPI@?$AAm?$AAk?$AA?9?$AAM?$AAK?$AA?$AA@ 0000000180020008     libucrt:lcidtoname_downlevel.obj
 0002:00004018       ??_C@_1M@IAIGNEJG@?$AAt?$AAn?$AA?9?$AAZ?$AAA?$AA?$AA@ 0000000180020018     libucrt:lcidtoname_downlevel.obj
 0002:00004028       ??_C@_1M@IIJCOJFA@?$AAx?$AAh?$AA?9?$AAZ?$AAA?$AA?$AA@ 0000000180020028     libucrt:lcidtoname_downlevel.obj
 0002:00004038       ??_C@_1M@LGPJHNJH@?$AAz?$AAu?$AA?9?$AAZ?$AAA?$AA?$AA@ 0000000180020038     libucrt:lcidtoname_downlevel.obj
 0002:00004048       ??_C@_1M@HOKAOIO@?$AAa?$AAf?$AA?9?$AAZ?$AAA?$AA?$AA@ 0000000180020048     libucrt:lcidtoname_downlevel.obj
 0002:00004058       ??_C@_1M@DPCLHLIE@?$AAk?$AAa?$AA?9?$AAG?$AAE?$AA?$AA@ 0000000180020058     libucrt:lcidtoname_downlevel.obj
 0002:00004068       ??_C@_1M@BLKMHJBI@?$AAf?$AAo?$AA?9?$AAF?$AAO?$AA?$AA@ 0000000180020068     libucrt:lcidtoname_downlevel.obj
 0002:00004078       ??_C@_1M@LGGJAPPB@?$AAh?$AAi?$AA?9?$AAI?$AAN?$AA?$AA@ 0000000180020078     libucrt:lcidtoname_downlevel.obj
 0002:00004088       ??_C@_1M@FIKPIHFE@?$AAm?$AAt?$AA?9?$AAM?$AAT?$AA?$AA@ 0000000180020088     libucrt:lcidtoname_downlevel.obj
 0002:00004098       ??_C@_1M@HEGGPBFA@?$AAs?$AAe?$AA?9?$AAN?$AAO?$AA?$AA@ 0000000180020098     libucrt:lcidtoname_downlevel.obj
 0002:000040a8       ??_C@_1M@EIBJEEPA@?$AAm?$AAs?$AA?9?$AAM?$AAY?$AA?$AA@ 00000001800200a8     libucrt:lcidtoname_downlevel.obj
 0002:000040b8       ??_C@_1M@FHLBGMPP@?$AAk?$AAk?$AA?9?$AAK?$AAZ?$AA?$AA@ 00000001800200b8     libucrt:lcidtoname_downlevel.obj
 0002:000040c8       ??_C@_1M@NGJJLCGI@?$AAk?$AAy?$AA?9?$AAK?$AAG?$AA?$AA@ 00000001800200c8     libucrt:lcidtoname_downlevel.obj
 0002:000040d8       ??_C@_1M@GIENNBFC@?$AAs?$AAw?$AA?9?$AAK?$AAE?$AA?$AA@ 00000001800200d8     libucrt:lcidtoname_downlevel.obj
 0002:000040e8       ??_C@_1BG@NDGMJIMJ@?$AAu?$AAz?$AA?9?$AAU?$AAZ?$AA?9?$AAL?$AAa?$AAt?$AAn?$AA?$AA@ 00000001800200e8     libucrt:lcidtoname_downlevel.obj
 0002:00004100       ??_C@_1M@IDCCIHBC@?$AAt?$AAt?$AA?9?$AAR?$AAU?$AA?$AA@ 0000000180020100     libucrt:lcidtoname_downlevel.obj
 0002:00004110       ??_C@_1M@LOICPMOJ@?$AAb?$AAn?$AA?9?$AAI?$AAN?$AA?$AA@ 0000000180020110     libucrt:lcidtoname_downlevel.obj
 0002:00004120       ??_C@_1M@KPKKNEAH@?$AAp?$AAa?$AA?9?$AAI?$AAN?$AA?$AA@ 0000000180020120     libucrt:lcidtoname_downlevel.obj
 0002:00004130       ??_C@_1M@PJGPPBOG@?$AAg?$AAu?$AA?9?$AAI?$AAN?$AA?$AA@ 0000000180020130     libucrt:lcidtoname_downlevel.obj
 0002:00004140       ??_C@_1M@KMKMOPHI@?$AAt?$AAa?$AA?9?$AAI?$AAN?$AA?$AA@ 0000000180020140     libucrt:lcidtoname_downlevel.obj
 0002:00004150       ??_C@_1M@KFEHEPAC@?$AAt?$AAe?$AA?9?$AAI?$AAN?$AA?$AA@ 0000000180020150     libucrt:lcidtoname_downlevel.obj
 0002:00004160       ??_C@_1M@CDCLMGHI@?$AAk?$AAn?$AA?9?$AAI?$AAN?$AA?$AA@ 0000000180020160     libucrt:lcidtoname_downlevel.obj
 0002:00004170       ??_C@_1M@MIODLDKF@?$AAm?$AAl?$AA?9?$AAI?$AAN?$AA?$AA@ 0000000180020170     libucrt:lcidtoname_downlevel.obj
 0002:00004180       ??_C@_1M@PBIEACPO@?$AAm?$AAr?$AA?9?$AAI?$AAN?$AA?$AA@ 0000000180020180     libucrt:lcidtoname_downlevel.obj
 0002:00004190       ??_C@_1M@NIDEAGPH@?$AAs?$AAa?$AA?9?$AAI?$AAN?$AA?$AA@ 0000000180020190     libucrt:lcidtoname_downlevel.obj
 0002:000041a0       ??_C@_1M@FHIHCBIO@?$AAm?$AAn?$AA?9?$AAM?$AAN?$AA?$AA@ 00000001800201a0     libucrt:lcidtoname_downlevel.obj
 0002:000041b0       ??_C@_1M@JAIJPENP@?$AAc?$AAy?$AA?9?$AAG?$AAB?$AA?$AA@ 00000001800201b0     libucrt:lcidtoname_downlevel.obj
 0002:000041c0       ??_C@_1M@PHGFBEPN@?$AAg?$AAl?$AA?9?$AAE?$AAS?$AA?$AA@ 00000001800201c0     libucrt:lcidtoname_downlevel.obj
 0002:000041d0       ??_C@_1O@KPIPDNCP@?$AAk?$AAo?$AAk?$AA?9?$AAI?$AAN?$AA?$AA@ 00000001800201d0     libucrt:lcidtoname_downlevel.obj
 0002:000041e0       ??_C@_1O@KNHJLDJA@?$AAs?$AAy?$AAr?$AA?9?$AAS?$AAY?$AA?$AA@ 00000001800201e0     libucrt:lcidtoname_downlevel.obj
 0002:000041f0       ??_C@_1O@MKEKBLAH@?$AAd?$AAi?$AAv?$AA?9?$AAM?$AAV?$AA?$AA@ 00000001800201f0     libucrt:lcidtoname_downlevel.obj
 0002:00004200       ??_C@_1O@OHDCKDDF@?$AAq?$AAu?$AAz?$AA?9?$AAB?$AAO?$AA?$AA@ 0000000180020200     libucrt:lcidtoname_downlevel.obj
 0002:00004210       ??_C@_1M@LEPJNLFD@?$AAn?$AAs?$AA?9?$AAZ?$AAA?$AA?$AA@ 0000000180020210     libucrt:lcidtoname_downlevel.obj
 0002:00004220       ??_C@_1M@OMLEIIJB@?$AAm?$AAi?$AA?9?$AAN?$AAZ?$AA?$AA@ 0000000180020220     libucrt:lcidtoname_downlevel.obj
 0002:00004230       ??_C@_1M@PMPEAILG@?$AAa?$AAr?$AA?9?$AAI?$AAQ?$AA?$AA@ 0000000180020230     libucrt:lcidtoname_downlevel.obj
 0002:00004240       ??_C@_1M@CNKPNOEE@?$AAd?$AAe?$AA?9?$AAC?$AAH?$AA?$AA@ 0000000180020240     libucrt:lcidtoname_downlevel.obj
 0002:00004250       ??_C@_1M@LKMGMLKO@?$AAe?$AAn?$AA?9?$AAG?$AAB?$AA?$AA@ 0000000180020250     libucrt:lcidtoname_downlevel.obj
 0002:00004260       ??_C@_1M@PGKJFFGL@?$AAe?$AAs?$AA?9?$AAM?$AAX?$AA?$AA@ 0000000180020260     libucrt:lcidtoname_downlevel.obj
 0002:00004270       ??_C@_1M@DNNANBDC@?$AAf?$AAr?$AA?9?$AAB?$AAE?$AA?$AA@ 0000000180020270     libucrt:lcidtoname_downlevel.obj
 0002:00004280       ??_C@_1M@HLGMDFHM@?$AAi?$AAt?$AA?9?$AAC?$AAH?$AA?$AA@ 0000000180020280     libucrt:lcidtoname_downlevel.obj
 0002:00004290       ??_C@_1M@CLLBGJH@?$AAn?$AAl?$AA?9?$AAB?$AAE?$AA?$AA@ 0000000180020290     libucrt:lcidtoname_downlevel.obj
 0002:000042a0       ??_C@_1M@BODBOGLF@?$AAn?$AAn?$AA?9?$AAN?$AAO?$AA?$AA@ 00000001800202a0     libucrt:lcidtoname_downlevel.obj
 0002:000042b0       ??_C@_1M@HFFAHKAD@?$AAp?$AAt?$AA?9?$AAP?$AAT?$AA?$AA@ 00000001800202b0     libucrt:lcidtoname_downlevel.obj
 0002:000042c0       ??_C@_1BG@LNOAKHIE@?$AAs?$AAr?$AA?9?$AAS?$AAP?$AA?9?$AAL?$AAa?$AAt?$AAn?$AA?$AA@ 00000001800202c0     libucrt:lcidtoname_downlevel.obj
 0002:000042d8       ??_C@_1M@HBMHBGAK@?$AAs?$AAv?$AA?9?$AAF?$AAI?$AA?$AA@ 00000001800202d8     libucrt:lcidtoname_downlevel.obj
 0002:000042e8       ??_C@_1BG@DGCJGJBE@?$AAa?$AAz?$AA?9?$AAA?$AAZ?$AA?9?$AAC?$AAy?$AAr?$AAl?$AA?$AA@ 00000001800202e8     libucrt:lcidtoname_downlevel.obj
 0002:00004300       ??_C@_1M@KEJDAAHB@?$AAs?$AAe?$AA?9?$AAS?$AAE?$AA?$AA@ 0000000180020300     libucrt:lcidtoname_downlevel.obj
 0002:00004310       ??_C@_1M@HEIBJJAD@?$AAm?$AAs?$AA?9?$AAB?$AAN?$AA?$AA@ 0000000180020310     libucrt:lcidtoname_downlevel.obj
 0002:00004320       ??_C@_1BG@PBGJMCEM@?$AAu?$AAz?$AA?9?$AAU?$AAZ?$AA?9?$AAC?$AAy?$AAr?$AAl?$AA?$AA@ 0000000180020320     libucrt:lcidtoname_downlevel.obj
 0002:00004338       ??_C@_1O@LAOBCMDF@?$AAq?$AAu?$AAz?$AA?9?$AAE?$AAC?$AA?$AA@ 0000000180020338     libucrt:lcidtoname_downlevel.obj
 0002:00004348       ??_C@_1M@POEEMAIO@?$AAa?$AAr?$AA?9?$AAE?$AAG?$AA?$AA@ 0000000180020348     libucrt:lcidtoname_downlevel.obj
 0002:00004358       ??_C@_1M@EFAKDEDL@?$AAz?$AAh?$AA?9?$AAH?$AAK?$AA?$AA@ 0000000180020358     libucrt:lcidtoname_downlevel.obj
 0002:00004368       ??_C@_1M@HKKIJHGI@?$AAd?$AAe?$AA?9?$AAA?$AAT?$AA?$AA@ 0000000180020368     libucrt:lcidtoname_downlevel.obj
 0002:00004378       ??_C@_1M@KBFBEHJF@?$AAe?$AAn?$AA?9?$AAA?$AAU?$AA?$AA@ 0000000180020378     libucrt:lcidtoname_downlevel.obj
 0002:00004388       ??_C@_1M@MNPLFAAH@?$AAe?$AAs?$AA?9?$AAE?$AAS?$AA?$AA@ 0000000180020388     libucrt:lcidtoname_downlevel.obj
 0002:00004398       ??_C@_1M@HJOOJFMA@?$AAf?$AAr?$AA?9?$AAC?$AAA?$AA?$AA@ 0000000180020398     libucrt:lcidtoname_downlevel.obj
 0002:000043a8       ??_C@_1BG@JPOFPNAB@?$AAs?$AAr?$AA?9?$AAS?$AAP?$AA?9?$AAC?$AAy?$AAr?$AAl?$AA?$AA@ 00000001800203a8     libucrt:lcidtoname_downlevel.obj
 0002:000043c0       ??_C@_1M@LNFOCMOB@?$AAs?$AAe?$AA?9?$AAF?$AAI?$AA?$AA@ 00000001800203c0     libucrt:lcidtoname_downlevel.obj
 0002:000043d0       ??_C@_1O@MGJBOAMB@?$AAq?$AAu?$AAz?$AA?9?$AAP?$AAE?$AA?$AA@ 00000001800203d0     libucrt:lcidtoname_downlevel.obj
 0002:000043e0       ??_C@_1M@GJINLBOK@?$AAa?$AAr?$AA?9?$AAL?$AAY?$AA?$AA@ 00000001800203e0     libucrt:lcidtoname_downlevel.obj
 0002:000043f0       ??_C@_1M@GGMNHJNL@?$AAz?$AAh?$AA?9?$AAS?$AAG?$AA?$AA@ 00000001800203f0     libucrt:lcidtoname_downlevel.obj
 0002:00004400       ??_C@_1M@HOIKODND@?$AAd?$AAe?$AA?9?$AAL?$AAU?$AA?$AA@ 0000000180020400     libucrt:lcidtoname_downlevel.obj
 0002:00004410       ??_C@_1M@DDOCCGFG@?$AAe?$AAn?$AA?9?$AAC?$AAA?$AA?$AA@ 0000000180020410     libucrt:lcidtoname_downlevel.obj
 0002:00004420       ??_C@_1M@BNOEMJLF@?$AAe?$AAs?$AA?9?$AAG?$AAT?$AA?$AA@ 0000000180020420     libucrt:lcidtoname_downlevel.obj
 0002:00004430       ??_C@_1M@EOGNKEK@?$AAf?$AAr?$AA?9?$AAC?$AAH?$AA?$AA@ 0000000180020430     libucrt:lcidtoname_downlevel.obj
 0002:00004440       ??_C@_1M@FLIDJFHL@?$AAh?$AAr?$AA?9?$AAB?$AAA?$AA?$AA@ 0000000180020440     libucrt:lcidtoname_downlevel.obj
 0002:00004450       ??_C@_1O@FMCELNAJ@?$AAs?$AAm?$AAj?$AA?9?$AAN?$AAO?$AA?$AA@ 0000000180020450     libucrt:lcidtoname_downlevel.obj
 0002:00004460       ??_C@_1M@JHGLJMGJ@?$AAa?$AAr?$AA?9?$AAD?$AAZ?$AA?$AA@ 0000000180020460     libucrt:lcidtoname_downlevel.obj
 0002:00004470       ??_C@_1M@JKKFDCNP@?$AAz?$AAh?$AA?9?$AAM?$AAO?$AA?$AA@ 0000000180020470     libucrt:lcidtoname_downlevel.obj
 0002:00004480       ??_C@_1M@GEEFALPE@?$AAd?$AAe?$AA?9?$AAL?$AAI?$AA?$AA@ 0000000180020480     libucrt:lcidtoname_downlevel.obj
 0002:00004490       ??_C@_1M@IGEOFBG@?$AAe?$AAn?$AA?9?$AAN?$AAZ?$AA?$AA@ 0000000180020490     libucrt:lcidtoname_downlevel.obj
 0002:000044a0       ??_C@_1M@KDBONEHP@?$AAe?$AAs?$AA?9?$AAC?$AAR?$AA?$AA@ 00000001800204a0     libucrt:lcidtoname_downlevel.obj
 0002:000044b0       ??_C@_1M@FHMDOHNN@?$AAf?$AAr?$AA?9?$AAL?$AAU?$AA?$AA@ 00000001800204b0     libucrt:lcidtoname_downlevel.obj
 0002:000044c0       ??_C@_1BG@NFKKMAFG@?$AAb?$AAs?$AA?9?$AAB?$AAA?$AA?9?$AAL?$AAa?$AAt?$AAn?$AA?$AA@ 00000001800204c0     libucrt:lcidtoname_downlevel.obj
 0002:000044d8       ??_C@_1O@IMNBEMCI@?$AAs?$AAm?$AAj?$AA?9?$AAS?$AAE?$AA?$AA@ 00000001800204d8     libucrt:lcidtoname_downlevel.obj
 0002:000044e8       ??_C@_1M@DHHMBNDP@?$AAa?$AAr?$AA?9?$AAM?$AAA?$AA?$AA@ 00000001800204e8     libucrt:lcidtoname_downlevel.obj
 0002:000044f8       ??_C@_1M@BNBLJCGH@?$AAe?$AAn?$AA?9?$AAI?$AAE?$AA?$AA@ 00000001800204f8     libucrt:lcidtoname_downlevel.obj
 0002:00004508       ??_C@_1M@GEPAFMDL@?$AAe?$AAs?$AA?9?$AAP?$AAA?$AA?$AA@ 0000000180020508     libucrt:lcidtoname_downlevel.obj
 0002:00004518       ??_C@_1M@OJONDMDL@?$AAf?$AAr?$AA?9?$AAM?$AAC?$AA?$AA@ 0000000180020518     libucrt:lcidtoname_downlevel.obj
 0002:00004528       ??_C@_1BG@OBCNFJB@?$AAs?$AAr?$AA?9?$AAB?$AAA?$AA?9?$AAL?$AAa?$AAt?$AAn?$AA?$AA@ 0000000180020528     libucrt:lcidtoname_downlevel.obj
 0002:00004540       ??_C@_1O@KEMEEGPO@?$AAs?$AAm?$AAa?$AA?9?$AAN?$AAO?$AA?$AA@ 0000000180020540     libucrt:lcidtoname_downlevel.obj
 0002:00004550       ??_C@_1M@ELMGFODK@?$AAa?$AAr?$AA?9?$AAT?$AAN?$AA?$AA@ 0000000180020550     libucrt:lcidtoname_downlevel.obj
 0002:00004560       ??_C@_1M@BHDLHFAF@?$AAe?$AAn?$AA?9?$AAZ?$AAA?$AA?$AA@ 0000000180020560     libucrt:lcidtoname_downlevel.obj
 0002:00004570       ??_C@_1M@BMGIGLIF@?$AAe?$AAs?$AA?9?$AAD?$AAO?$AA?$AA@ 0000000180020570     libucrt:lcidtoname_downlevel.obj
 0002:00004580       ??_C@_1BG@CMBHIPBE@?$AAs?$AAr?$AA?9?$AAB?$AAA?$AA?9?$AAC?$AAy?$AAr?$AAl?$AA?$AA@ 0000000180020580     libucrt:lcidtoname_downlevel.obj
 0002:00004598       ??_C@_1O@HEDBLHNP@?$AAs?$AAm?$AAa?$AA?9?$AAS?$AAE?$AA?$AA@ 0000000180020598     libucrt:lcidtoname_downlevel.obj
 0002:000045a8       ??_C@_1M@DAGCADIM@?$AAa?$AAr?$AA?9?$AAO?$AAM?$AA?$AA@ 00000001800205a8     libucrt:lcidtoname_downlevel.obj
 0002:000045b8       ??_C@_1M@FODLMICG@?$AAe?$AAn?$AA?9?$AAJ?$AAM?$AA?$AA@ 00000001800205b8     libucrt:lcidtoname_downlevel.obj
 0002:000045c8       ??_C@_1M@DNMLCIHB@?$AAe?$AAs?$AA?9?$AAV?$AAE?$AA?$AA@ 00000001800205c8     libucrt:lcidtoname_downlevel.obj
 0002:000045d8       ??_C@_1O@EOKHMKJK@?$AAs?$AAm?$AAs?$AA?9?$AAF?$AAI?$AA?$AA@ 00000001800205d8     libucrt:lcidtoname_downlevel.obj
 0002:000045e8       ??_C@_1M@CAFJMKOF@?$AAa?$AAr?$AA?9?$AAY?$AAE?$AA?$AA@ 00000001800205e8     libucrt:lcidtoname_downlevel.obj
 0002:000045f8       ??_C@_1M@CBFHIJLI@?$AAe?$AAn?$AA?9?$AAC?$AAB?$AA?$AA@ 00000001800205f8     libucrt:lcidtoname_downlevel.obj
 0002:00004608       ??_C@_1M@BGNFLDN@?$AAe?$AAs?$AA?9?$AAC?$AAO?$AA?$AA@ 0000000180020608     libucrt:lcidtoname_downlevel.obj
 0002:00004618       ??_C@_1O@JMPHMAMC@?$AAs?$AAm?$AAn?$AA?9?$AAF?$AAI?$AA?$AA@ 0000000180020618     libucrt:lcidtoname_downlevel.obj
 0002:00004628       ??_C@_1M@JLANABKE@?$AAa?$AAr?$AA?9?$AAS?$AAY?$AA?$AA@ 0000000180020628     libucrt:lcidtoname_downlevel.obj
 0002:00004638       ??_C@_1M@HPKGCFGN@?$AAe?$AAn?$AA?9?$AAB?$AAZ?$AA?$AA@ 0000000180020638     libucrt:lcidtoname_downlevel.obj
 0002:00004648       ??_C@_1M@OLJCMLGM@?$AAe?$AAs?$AA?9?$AAP?$AAE?$AA?$AA@ 0000000180020648     libucrt:lcidtoname_downlevel.obj
 0002:00004658       ??_C@_1M@MKKGFKLE@?$AAa?$AAr?$AA?9?$AAJ?$AAO?$AA?$AA@ 0000000180020658     libucrt:lcidtoname_downlevel.obj
 0002:00004668       ??_C@_1M@EKPGLDNI@?$AAe?$AAn?$AA?9?$AAT?$AAT?$AA?$AA@ 0000000180020668     libucrt:lcidtoname_downlevel.obj
 0002:00004678       ??_C@_1M@OONGHFHE@?$AAe?$AAs?$AA?9?$AAA?$AAR?$AA?$AA@ 0000000180020678     libucrt:lcidtoname_downlevel.obj
 0002:00004688       ??_C@_1M@OOJFGBHE@?$AAa?$AAr?$AA?9?$AAL?$AAB?$AA?$AA@ 0000000180020688     libucrt:lcidtoname_downlevel.obj
 0002:00004698       ??_C@_1M@GCEJHNEG@?$AAe?$AAn?$AA?9?$AAZ?$AAW?$AA?$AA@ 0000000180020698     libucrt:lcidtoname_downlevel.obj
 0002:000046a8       ??_C@_1M@JNOCAHJI@?$AAe?$AAs?$AA?9?$AAE?$AAC?$AA?$AA@ 00000001800206a8     libucrt:lcidtoname_downlevel.obj
 0002:000046b8       ??_C@_1M@JEFHPGGB@?$AAa?$AAr?$AA?9?$AAK?$AAW?$AA?$AA@ 00000001800206b8     libucrt:lcidtoname_downlevel.obj
 0002:000046c8       ??_C@_1M@MLKIBJOJ@?$AAe?$AAn?$AA?9?$AAP?$AAH?$AA?$AA@ 00000001800206c8     libucrt:lcidtoname_downlevel.obj
 0002:000046d8       ??_C@_1M@BDNIPEND@?$AAe?$AAs?$AA?9?$AAC?$AAL?$AA?$AA@ 00000001800206d8     libucrt:lcidtoname_downlevel.obj
 0002:000046e8       ??_C@_1M@MPNMEKBD@?$AAa?$AAr?$AA?9?$AAA?$AAE?$AA?$AA@ 00000001800206e8     libucrt:lcidtoname_downlevel.obj
 0002:000046f8       ??_C@_1M@KBJALCPI@?$AAe?$AAs?$AA?9?$AAU?$AAY?$AA?$AA@ 00000001800206f8     libucrt:lcidtoname_downlevel.obj
 0002:00004708       ??_C@_1M@LLCCOAGA@?$AAa?$AAr?$AA?9?$AAB?$AAH?$AA?$AA@ 0000000180020708     libucrt:lcidtoname_downlevel.obj
 0002:00004718       ??_C@_1M@PBFNCDEL@?$AAe?$AAs?$AA?9?$AAP?$AAY?$AA?$AA@ 0000000180020718     libucrt:lcidtoname_downlevel.obj
 0002:00004728       ??_C@_1M@EDGINPNP@?$AAa?$AAr?$AA?9?$AAQ?$AAA?$AA?$AA@ 0000000180020728     libucrt:lcidtoname_downlevel.obj
 0002:00004738       ??_C@_1M@MKDBIIJI@?$AAe?$AAs?$AA?9?$AAB?$AAO?$AA?$AA@ 0000000180020738     libucrt:lcidtoname_downlevel.obj
 0002:00004748       ??_C@_1M@CPKKEBLD@?$AAe?$AAs?$AA?9?$AAS?$AAV?$AA?$AA@ 0000000180020748     libucrt:lcidtoname_downlevel.obj
 0002:00004758       ??_C@_1M@NDBGMMJL@?$AAe?$AAs?$AA?9?$AAH?$AAN?$AA?$AA@ 0000000180020758     libucrt:lcidtoname_downlevel.obj
 0002:00004768       ??_C@_1M@JIJIBHDP@?$AAe?$AAs?$AA?9?$AAN?$AAI?$AA?$AA@ 0000000180020768     libucrt:lcidtoname_downlevel.obj
 0002:00004778       ??_C@_1M@CGFMKEEK@?$AAe?$AAs?$AA?9?$AAP?$AAR?$AA?$AA@ 0000000180020778     libucrt:lcidtoname_downlevel.obj
 0002:00004788       ??_C@_1O@ICJHKIIK@?$AAz?$AAh?$AA?9?$AAC?$AAH?$AAT?$AA?$AA@ 0000000180020788     libucrt:lcidtoname_downlevel.obj
 0002:00004798       ??_C@_15CLNEJCE@?$AAs?$AAr?$AA?$AA@ 0000000180020798     libucrt:lcidtoname_downlevel.obj
 0002:000055e0       ??_C@_1M@KAHEKEIG@?$AAa?$AAf?$AA?9?$AAz?$AAa?$AA?$AA@ 00000001800215e0     libucrt:lcidtoname_downlevel.obj
 0002:000055f0       ??_C@_1M@GIECOABL@?$AAa?$AAr?$AA?9?$AAa?$AAe?$AA?$AA@ 00000001800215f0     libucrt:lcidtoname_downlevel.obj
 0002:00005600       ??_C@_1M@BMLMEKGI@?$AAa?$AAr?$AA?9?$AAb?$AAh?$AA?$AA@ 0000000180021600     libucrt:lcidtoname_downlevel.obj
 0002:00005610       ??_C@_1M@DAPFDGGB@?$AAa?$AAr?$AA?9?$AAd?$AAz?$AA?$AA@ 0000000180021610     libucrt:lcidtoname_downlevel.obj
 0002:00005620       ??_C@_1M@FJNKGKIG@?$AAa?$AAr?$AA?9?$AAe?$AAg?$AA?$AA@ 0000000180021620     libucrt:lcidtoname_downlevel.obj
 0002:00005630       ??_C@_1M@FLGKKCLO@?$AAa?$AAr?$AA?9?$AAi?$AAq?$AA?$AA@ 0000000180021630     libucrt:lcidtoname_downlevel.obj
 0002:00005640       ??_C@_1M@GNDIPALM@?$AAa?$AAr?$AA?9?$AAj?$AAo?$AA?$AA@ 0000000180021640     libucrt:lcidtoname_downlevel.obj
 0002:00005650       ??_C@_1M@DDMJFMGJ@?$AAa?$AAr?$AA?9?$AAk?$AAw?$AA?$AA@ 0000000180021650     libucrt:lcidtoname_downlevel.obj
 0002:00005660       ??_C@_1M@EJALMLHM@?$AAa?$AAr?$AA?9?$AAl?$AAb?$AA?$AA@ 0000000180021660     libucrt:lcidtoname_downlevel.obj
 0002:00005670       ??_C@_1M@MOBDBLOC@?$AAa?$AAr?$AA?9?$AAl?$AAy?$AA?$AA@ 0000000180021670     libucrt:lcidtoname_downlevel.obj
 0002:00005680       ??_C@_1M@JAOCLHDH@?$AAa?$AAr?$AA?9?$AAm?$AAa?$AA?$AA@ 0000000180021680     libucrt:lcidtoname_downlevel.obj
 0002:00005690       ??_C@_1M@JHPMKJIE@?$AAa?$AAr?$AA?9?$AAo?$AAm?$AA?$AA@ 0000000180021690     libucrt:lcidtoname_downlevel.obj
 0002:000056a0       ??_C@_1M@OEPGHFNH@?$AAa?$AAr?$AA?9?$AAq?$AAa?$AA?$AA@ 00000001800216a0     libucrt:lcidtoname_downlevel.obj
 0002:000056b0       ??_C@_1M@KJDONENM@?$AAa?$AAr?$AA?9?$AAs?$AAa?$AA?$AA@ 00000001800216b0     libucrt:lcidtoname_downlevel.obj
 0002:000056c0       ??_C@_1M@DMJDKLKM@?$AAa?$AAr?$AA?9?$AAs?$AAy?$AA?$AA@ 00000001800216c0     libucrt:lcidtoname_downlevel.obj
 0002:000056d0       ??_C@_1M@OMFIPEDC@?$AAa?$AAr?$AA?9?$AAt?$AAn?$AA?$AA@ 00000001800216d0     libucrt:lcidtoname_downlevel.obj
 0002:000056e0       ??_C@_1M@IHMHGAON@?$AAa?$AAr?$AA?9?$AAy?$AAe?$AA?$AA@ 00000001800216e0     libucrt:lcidtoname_downlevel.obj
 0002:000056f0       ??_C@_1BG@KDCPGJGB@?$AAa?$AAz?$AA?9?$AAa?$AAz?$AA?9?$AAc?$AAy?$AAr?$AAl?$AA?$AA@ 00000001800216f0     libucrt:lcidtoname_downlevel.obj
 0002:00005708       ??_C@_1BG@IBCKDDOE@?$AAa?$AAz?$AA?9?$AAa?$AAz?$AA?9?$AAl?$AAa?$AAt?$AAn?$AA?$AA@ 0000000180021708     libucrt:lcidtoname_downlevel.obj
 0002:00005720       ??_C@_1M@EGPFDCPD@?$AAb?$AAe?$AA?9?$AAb?$AAy?$AA?$AA@ 0000000180021720     libucrt:lcidtoname_downlevel.obj
 0002:00005730       ??_C@_1M@PCMGMCGC@?$AAb?$AAg?$AA?9?$AAb?$AAg?$AA?$AA@ 0000000180021730     libucrt:lcidtoname_downlevel.obj
 0002:00005740       ??_C@_1M@BJBMFGOB@?$AAb?$AAn?$AA?9?$AAi?$AAn?$AA?$AA@ 0000000180021740     libucrt:lcidtoname_downlevel.obj
 0002:00005750       ??_C@_1BG@EAKMMACD@?$AAb?$AAs?$AA?9?$AAb?$AAa?$AA?9?$AAl?$AAa?$AAt?$AAn?$AA?$AA@ 0000000180021750     libucrt:lcidtoname_downlevel.obj
 0002:00005768       ??_C@_1M@KGADAODK@?$AAc?$AAa?$AA?9?$AAe?$AAs?$AA?$AA@ 0000000180021768     libucrt:lcidtoname_downlevel.obj
 0002:00005778       ??_C@_1M@COAJPDHI@?$AAc?$AAs?$AA?9?$AAc?$AAz?$AA?$AA@ 0000000180021778     libucrt:lcidtoname_downlevel.obj
 0002:00005788       ??_C@_1M@DHBHFONH@?$AAc?$AAy?$AA?9?$AAg?$AAb?$AA?$AA@ 0000000180021788     libucrt:lcidtoname_downlevel.obj
 0002:00005798       ??_C@_1M@IMGKELGA@?$AAd?$AAa?$AA?9?$AAd?$AAk?$AA?$AA@ 0000000180021798     libucrt:lcidtoname_downlevel.obj
 0002:000057a8       ??_C@_1M@NNDGDNGA@?$AAd?$AAe?$AA?9?$AAa?$AAt?$AA?$AA@ 00000001800217a8     libucrt:lcidtoname_downlevel.obj
 0002:000057b8       ??_C@_1M@IKDBHEEM@?$AAd?$AAe?$AA?9?$AAc?$AAh?$AA?$AA@ 00000001800217b8     libucrt:lcidtoname_downlevel.obj
 0002:000057c8       ??_C@_1M@GFFOJMCJ@?$AAd?$AAe?$AA?9?$AAd?$AAe?$AA?$AA@ 00000001800217c8     libucrt:lcidtoname_downlevel.obj
 0002:000057d8       ??_C@_1M@MDNLKBPM@?$AAd?$AAe?$AA?9?$AAl?$AAi?$AA?$AA@ 00000001800217d8     libucrt:lcidtoname_downlevel.obj
 0002:000057e8       ??_C@_1M@NJBEEJNL@?$AAd?$AAe?$AA?9?$AAl?$AAu?$AA?$AA@ 00000001800217e8     libucrt:lcidtoname_downlevel.obj
 0002:000057f8       ??_C@_1O@GNNELBAP@?$AAd?$AAi?$AAv?$AA?9?$AAm?$AAv?$AA?$AA@ 00000001800217f8     libucrt:lcidtoname_downlevel.obj
 0002:00005808       ??_C@_1M@EJLEOGAE@?$AAe?$AAl?$AA?9?$AAg?$AAr?$AA?$AA@ 0000000180021808     libucrt:lcidtoname_downlevel.obj
 0002:00005818       ??_C@_1M@GMPONJN@?$AAe?$AAn?$AA?9?$AAa?$AAu?$AA?$AA@ 0000000180021818     libucrt:lcidtoname_downlevel.obj
 0002:00005828       ??_C@_1M@NIDIIPGF@?$AAe?$AAn?$AA?9?$AAb?$AAz?$AA?$AA@ 0000000180021828     libucrt:lcidtoname_downlevel.obj
 0002:00005838       ??_C@_1M@JEHMIMFO@?$AAe?$AAn?$AA?9?$AAc?$AAa?$AA?$AA@ 0000000180021838     libucrt:lcidtoname_downlevel.obj
 0002:00005848       ??_C@_1M@IGMJCDLA@?$AAe?$AAn?$AA?9?$AAc?$AAb?$AA?$AA@ 0000000180021848     libucrt:lcidtoname_downlevel.obj
 0002:00005858       ??_C@_1M@BNFIGBKG@?$AAe?$AAn?$AA?9?$AAg?$AAb?$AA?$AA@ 0000000180021858     libucrt:lcidtoname_downlevel.obj
 0002:00005868       ??_C@_1M@LKIFDIGP@?$AAe?$AAn?$AA?9?$AAi?$AAe?$AA?$AA@ 0000000180021868     libucrt:lcidtoname_downlevel.obj
 0002:00005878       ??_C@_1M@PJKFGCCO@?$AAe?$AAn?$AA?9?$AAj?$AAm?$AA?$AA@ 0000000180021878     libucrt:lcidtoname_downlevel.obj
 0002:00005888       ??_C@_1M@KPPKEPBO@?$AAe?$AAn?$AA?9?$AAn?$AAz?$AA?$AA@ 0000000180021888     libucrt:lcidtoname_downlevel.obj
 0002:00005898       ??_C@_1M@GMDGLDOB@?$AAe?$AAn?$AA?9?$AAp?$AAh?$AA?$AA@ 0000000180021898     libucrt:lcidtoname_downlevel.obj
 0002:000058a8       ??_C@_1M@ONGIBJNA@?$AAe?$AAn?$AA?9?$AAt?$AAt?$AA?$AA@ 00000001800218a8     libucrt:lcidtoname_downlevel.obj
 0002:000058b8       ??_C@_1M@LLODPCMM@?$AAe?$AAn?$AA?9?$AAu?$AAs?$AA?$AA@ 00000001800218b8     libucrt:lcidtoname_downlevel.obj
 0002:000058c8       ??_C@_1M@LAKFNPAN@?$AAe?$AAn?$AA?9?$AAz?$AAa?$AA?$AA@ 00000001800218c8     libucrt:lcidtoname_downlevel.obj
 0002:000058d8       ??_C@_1M@MFNHNHEO@?$AAe?$AAn?$AA?9?$AAz?$AAw?$AA?$AA@ 00000001800218d8     libucrt:lcidtoname_downlevel.obj
 0002:000058e8       ??_C@_1M@EJEINPHM@?$AAe?$AAs?$AA?9?$AAa?$AAr?$AA?$AA@ 00000001800218e8     libucrt:lcidtoname_downlevel.obj
 0002:000058f8       ??_C@_1M@GNKPCCJA@?$AAe?$AAs?$AA?9?$AAb?$AAo?$AA?$AA@ 00000001800218f8     libucrt:lcidtoname_downlevel.obj
 0002:00005908       ??_C@_1M@LEEGFONL@?$AAe?$AAs?$AA?9?$AAc?$AAl?$AA?$AA@ 0000000180021908     libucrt:lcidtoname_downlevel.obj
 0002:00005918       ??_C@_1M@KGPDPBDF@?$AAe?$AAs?$AA?9?$AAc?$AAo?$AA?$AA@ 0000000180021918     libucrt:lcidtoname_downlevel.obj
 0002:00005928       ??_C@_1M@EIAHOHH@?$AAe?$AAs?$AA?9?$AAc?$AAr?$AA?$AA@ 0000000180021928     libucrt:lcidtoname_downlevel.obj
 0002:00005938       ??_C@_1M@LLPGMBIN@?$AAe?$AAs?$AA?9?$AAd?$AAo?$AA?$AA@ 0000000180021938     libucrt:lcidtoname_downlevel.obj
 0002:00005948       ??_C@_1M@DKHMKNJA@?$AAe?$AAs?$AA?9?$AAe?$AAc?$AA?$AA@ 0000000180021948     libucrt:lcidtoname_downlevel.obj
 0002:00005958       ??_C@_1M@GKGFPKAP@?$AAe?$AAs?$AA?9?$AAe?$AAs?$AA?$AA@ 0000000180021958     libucrt:lcidtoname_downlevel.obj
 0002:00005968       ??_C@_1M@LKHKGDLN@?$AAe?$AAs?$AA?9?$AAg?$AAt?$AA?$AA@ 0000000180021968     libucrt:lcidtoname_downlevel.obj
 0002:00005978       ??_C@_1M@HEIIGGJD@?$AAe?$AAs?$AA?9?$AAh?$AAn?$AA?$AA@ 0000000180021978     libucrt:lcidtoname_downlevel.obj
 0002:00005988       ??_C@_1M@FBDHPPGD@?$AAe?$AAs?$AA?9?$AAm?$AAx?$AA?$AA@ 0000000180021988     libucrt:lcidtoname_downlevel.obj
 0002:00005998       ??_C@_1M@DPAGLNDH@?$AAe?$AAs?$AA?9?$AAn?$AAi?$AA?$AA@ 0000000180021998     libucrt:lcidtoname_downlevel.obj
 0002:000059a8       ??_C@_1M@MDGOPGDD@?$AAe?$AAs?$AA?9?$AAp?$AAa?$AA?$AA@ 00000001800219a8     libucrt:lcidtoname_downlevel.obj
 0002:000059b8       ??_C@_1M@EMAMGBGE@?$AAe?$AAs?$AA?9?$AAp?$AAe?$AA?$AA@ 00000001800219b8     libucrt:lcidtoname_downlevel.obj
 0002:000059c8       ??_C@_1M@IBMCAOEC@?$AAe?$AAs?$AA?9?$AAp?$AAr?$AA?$AA@ 00000001800219c8     libucrt:lcidtoname_downlevel.obj
 0002:000059d8       ??_C@_1M@FGMDIJED@?$AAe?$AAs?$AA?9?$AAp?$AAy?$AA?$AA@ 00000001800219d8     libucrt:lcidtoname_downlevel.obj
 0002:000059e8       ??_C@_1M@IIDEOLLL@?$AAe?$AAs?$AA?9?$AAs?$AAv?$AA?$AA@ 00000001800219e8     libucrt:lcidtoname_downlevel.obj
 0002:000059f8       ??_C@_1M@GAOBIPA@?$AAe?$AAs?$AA?9?$AAu?$AAy?$AA?$AA@ 00000001800219f8     libucrt:lcidtoname_downlevel.obj
 0002:00005a08       ??_C@_1M@JKFFICHJ@?$AAe?$AAs?$AA?9?$AAv?$AAe?$AA?$AA@ 0000000180021a08     libucrt:lcidtoname_downlevel.obj
 0002:00005a18       ??_C@_1M@PNMLOJDF@?$AAe?$AAt?$AA?9?$AAe?$AAe?$AA?$AA@ 0000000180021a18     libucrt:lcidtoname_downlevel.obj
 0002:00005a28       ??_C@_1M@GHHLIKEI@?$AAe?$AAu?$AA?9?$AAe?$AAs?$AA?$AA@ 0000000180021a28     libucrt:lcidtoname_downlevel.obj
 0002:00005a38       ??_C@_1M@PBNONODE@?$AAf?$AAa?$AA?9?$AAi?$AAr?$AA?$AA@ 0000000180021a38     libucrt:lcidtoname_downlevel.obj
 0002:00005a48       ??_C@_1M@JEEHPMIL@?$AAf?$AAi?$AA?9?$AAf?$AAi?$AA?$AA@ 0000000180021a48     libucrt:lcidtoname_downlevel.obj
 0002:00005a58       ??_C@_1M@LMDCNDBA@?$AAf?$AAo?$AA?9?$AAf?$AAo?$AA?$AA@ 0000000180021a58     libucrt:lcidtoname_downlevel.obj
 0002:00005a68       ??_C@_1M@JKEOHLDK@?$AAf?$AAr?$AA?9?$AAb?$AAe?$AA?$AA@ 0000000180021a68     libucrt:lcidtoname_downlevel.obj
 0002:00005a78       ??_C@_1M@NOHADPMI@?$AAf?$AAr?$AA?9?$AAc?$AAa?$AA?$AA@ 0000000180021a78     libucrt:lcidtoname_downlevel.obj
 0002:00005a88       ??_C@_1M@KDHIHAEC@?$AAf?$AAr?$AA?9?$AAc?$AAh?$AA?$AA@ 0000000180021a88     libucrt:lcidtoname_downlevel.obj
 0002:00005a98       ??_C@_1M@MMBBFGAK@?$AAf?$AAr?$AA?9?$AAf?$AAr?$AA?$AA@ 0000000180021a98     libucrt:lcidtoname_downlevel.obj
 0002:00005aa8       ??_C@_1M@PAFNENNF@?$AAf?$AAr?$AA?9?$AAl?$AAu?$AA?$AA@ 0000000180021aa8     libucrt:lcidtoname_downlevel.obj
 0002:00005ab8       ??_C@_1M@EOHDJGDD@?$AAf?$AAr?$AA?9?$AAm?$AAc?$AA?$AA@ 0000000180021ab8     libucrt:lcidtoname_downlevel.obj
 0002:00005ac8       ??_C@_1M@FAPLLOPF@?$AAg?$AAl?$AA?9?$AAe?$AAs?$AA?$AA@ 0000000180021ac8     libucrt:lcidtoname_downlevel.obj
 0002:00005ad8       ??_C@_1M@FOPBFLOO@?$AAg?$AAu?$AA?9?$AAi?$AAn?$AA?$AA@ 0000000180021ad8     libucrt:lcidtoname_downlevel.obj
 0002:00005ae8       ??_C@_1M@KBMCINPM@?$AAh?$AAe?$AA?9?$AAi?$AAl?$AA?$AA@ 0000000180021ae8     libucrt:lcidtoname_downlevel.obj
 0002:00005af8       ??_C@_1M@BBPHKFPJ@?$AAh?$AAi?$AA?9?$AAi?$AAn?$AA?$AA@ 0000000180021af8     libucrt:lcidtoname_downlevel.obj
 0002:00005b08       ??_C@_1M@PMBNDPHD@?$AAh?$AAr?$AA?9?$AAb?$AAa?$AA?$AA@ 0000000180021b08     libucrt:lcidtoname_downlevel.obj
 0002:00005b18       ??_C@_1M@BPCKOEGE@?$AAh?$AAr?$AA?9?$AAh?$AAr?$AA?$AA@ 0000000180021b18     libucrt:lcidtoname_downlevel.obj
 0002:00005b28       ??_C@_1M@GACBMHKE@?$AAh?$AAu?$AA?9?$AAh?$AAu?$AA?$AA@ 0000000180021b28     libucrt:lcidtoname_downlevel.obj
 0002:00005b38       ??_C@_1M@MILPAJJC@?$AAh?$AAy?$AA?9?$AAa?$AAm?$AA?$AA@ 0000000180021b38     libucrt:lcidtoname_downlevel.obj
 0002:00005b48       ??_C@_1M@BABBICEC@?$AAi?$AAd?$AA?9?$AAi?$AAd?$AA?$AA@ 0000000180021b48     libucrt:lcidtoname_downlevel.obj
 0002:00005b58       ??_C@_1M@BIKNHHPF@?$AAi?$AAs?$AA?9?$AAi?$AAs?$AA?$AA@ 0000000180021b58     libucrt:lcidtoname_downlevel.obj
 0002:00005b68       ??_C@_1M@NMPCJPHE@?$AAi?$AAt?$AA?9?$AAc?$AAh?$AA?$AA@ 0000000180021b68     libucrt:lcidtoname_downlevel.obj
 0002:00005b78       ??_C@_1M@GHKGFEDF@?$AAi?$AAt?$AA?9?$AAi?$AAt?$AA?$AA@ 0000000180021b78     libucrt:lcidtoname_downlevel.obj
 0002:00005b88       ??_C@_1M@NIEJCJJA@?$AAj?$AAa?$AA?9?$AAj?$AAp?$AA?$AA@ 0000000180021b88     libucrt:lcidtoname_downlevel.obj
 0002:00005b98       ??_C@_1M@JILFNBIM@?$AAk?$AAa?$AA?9?$AAg?$AAe?$AA?$AA@ 0000000180021b98     libucrt:lcidtoname_downlevel.obj
 0002:00005ba8       ??_C@_1M@PACPMGPH@?$AAk?$AAk?$AA?9?$AAk?$AAz?$AA?$AA@ 0000000180021ba8     libucrt:lcidtoname_downlevel.obj
 0002:00005bb8       ??_C@_1M@IELFGMHA@?$AAk?$AAn?$AA?9?$AAi?$AAn?$AA?$AA@ 0000000180021bb8     libucrt:lcidtoname_downlevel.obj
 0002:00005bc8       ??_C@_1O@IBBJHCH@?$AAk?$AAo?$AAk?$AA?9?$AAi?$AAn?$AA?$AA@ 0000000180021bc8     libucrt:lcidtoname_downlevel.obj
 0002:00005bd8       ??_C@_1M@DMHAEOGC@?$AAk?$AAo?$AA?9?$AAk?$AAr?$AA?$AA@ 0000000180021bd8     libucrt:lcidtoname_downlevel.obj
 0002:00005be8       ??_C@_1M@HBAHBIGA@?$AAk?$AAy?$AA?9?$AAk?$AAg?$AA?$AA@ 0000000180021be8     libucrt:lcidtoname_downlevel.obj
 0002:00005bf8       ??_C@_1M@KPMILCJG@?$AAl?$AAt?$AA?9?$AAl?$AAt?$AA?$AA@ 0000000180021bf8     libucrt:lcidtoname_downlevel.obj
 0002:00005c08       ??_C@_1M@BDEKKCA@?$AAl?$AAv?$AA?9?$AAl?$AAv?$AA?$AA@ 0000000180021c08     libucrt:lcidtoname_downlevel.obj
 0002:00005c18       ??_C@_1M@ELCKCCJJ@?$AAm?$AAi?$AA?9?$AAn?$AAz?$AA?$AA@ 0000000180021c18     libucrt:lcidtoname_downlevel.obj
 0002:00005c28       ??_C@_1M@CBOOLAPA@?$AAm?$AAk?$AA?9?$AAm?$AAk?$AA?$AA@ 0000000180021c28     libucrt:lcidtoname_downlevel.obj
 0002:00005c38       ??_C@_1M@GPHNBJKN@?$AAm?$AAl?$AA?9?$AAi?$AAn?$AA?$AA@ 0000000180021c38     libucrt:lcidtoname_downlevel.obj
 0002:00005c48       ??_C@_1M@PABJILIG@?$AAm?$AAn?$AA?9?$AAm?$AAn?$AA?$AA@ 0000000180021c48     libucrt:lcidtoname_downlevel.obj
 0002:00005c58       ??_C@_1M@FGBKKIPG@?$AAm?$AAr?$AA?9?$AAi?$AAn?$AA?$AA@ 0000000180021c58     libucrt:lcidtoname_downlevel.obj
 0002:00005c68       ??_C@_1M@NDBPDDAL@?$AAm?$AAs?$AA?9?$AAb?$AAn?$AA?$AA@ 0000000180021c68     libucrt:lcidtoname_downlevel.obj
 0002:00005c78       ??_C@_1M@OPIHOOPI@?$AAm?$AAs?$AA?9?$AAm?$AAy?$AA?$AA@ 0000000180021c78     libucrt:lcidtoname_downlevel.obj
 0002:00005c88       ??_C@_1M@PPDBCNFM@?$AAm?$AAt?$AA?9?$AAm?$AAt?$AA?$AA@ 0000000180021c88     libucrt:lcidtoname_downlevel.obj
 0002:00005c98       ??_C@_1M@KDJDKMDD@?$AAn?$AAb?$AA?9?$AAn?$AAo?$AA?$AA@ 0000000180021c98     libucrt:lcidtoname_downlevel.obj
 0002:00005ca8       ??_C@_1M@KFCFLMJP@?$AAn?$AAl?$AA?9?$AAb?$AAe?$AA?$AA@ 0000000180021ca8     libucrt:lcidtoname_downlevel.obj
 0002:00005cb8       ??_C@_1M@KPOPDDGO@?$AAn?$AAl?$AA?9?$AAn?$AAl?$AA?$AA@ 0000000180021cb8     libucrt:lcidtoname_downlevel.obj
 0002:00005cc8       ??_C@_1M@LJKPEMLN@?$AAn?$AAn?$AA?9?$AAn?$AAo?$AA?$AA@ 0000000180021cc8     libucrt:lcidtoname_downlevel.obj
 0002:00005cd8       ??_C@_1M@BDGHHBFL@?$AAn?$AAs?$AA?9?$AAz?$AAa?$AA?$AA@ 0000000180021cd8     libucrt:lcidtoname_downlevel.obj
 0002:00005ce8       ??_C@_1M@IDEHOAP@?$AAp?$AAa?$AA?9?$AAi?$AAn?$AA?$AA@ 0000000180021ce8     libucrt:lcidtoname_downlevel.obj
 0002:00005cf8       ??_C@_1M@HDBKGOGH@?$AAp?$AAl?$AA?9?$AAp?$AAl?$AA?$AA@ 0000000180021cf8     libucrt:lcidtoname_downlevel.obj
 0002:00005d08       ??_C@_1M@LJLLCMEH@?$AAp?$AAt?$AA?9?$AAb?$AAr?$AA?$AA@ 0000000180021d08     libucrt:lcidtoname_downlevel.obj
 0002:00005d18       ??_C@_1M@NCMONAAL@?$AAp?$AAt?$AA?9?$AAp?$AAt?$AA?$AA@ 0000000180021d18     libucrt:lcidtoname_downlevel.obj
 0002:00005d28       ??_C@_1O@EAKMAJDN@?$AAq?$AAu?$AAz?$AA?9?$AAb?$AAo?$AA?$AA@ 0000000180021d28     libucrt:lcidtoname_downlevel.obj
 0002:00005d38       ??_C@_1O@BHHPIGDN@?$AAq?$AAu?$AAz?$AA?9?$AAe?$AAc?$AA?$AA@ 0000000180021d38     libucrt:lcidtoname_downlevel.obj
 0002:00005d48       ??_C@_1O@GBAPEKMJ@?$AAq?$AAu?$AAz?$AA?9?$AAp?$AAe?$AA?$AA@ 0000000180021d48     libucrt:lcidtoname_downlevel.obj
 0002:00005d58       ??_C@_1M@CLGLEFBO@?$AAr?$AAo?$AA?9?$AAr?$AAo?$AA?$AA@ 0000000180021d58     libucrt:lcidtoname_downlevel.obj
 0002:00005d68       ??_C@_1M@CEEDODME@?$AAr?$AAu?$AA?9?$AAr?$AAu?$AA?$AA@ 0000000180021d68     libucrt:lcidtoname_downlevel.obj
 0002:00005d78       ??_C@_1M@HPKKKMPP@?$AAs?$AAa?$AA?9?$AAi?$AAn?$AA?$AA@ 0000000180021d78     libucrt:lcidtoname_downlevel.obj
 0002:00005d88       ??_C@_1M@BKMAIGOJ@?$AAs?$AAe?$AA?9?$AAf?$AAi?$AA?$AA@ 0000000180021d88     libucrt:lcidtoname_downlevel.obj
 0002:00005d98       ??_C@_1M@NDPIFLFI@?$AAs?$AAe?$AA?9?$AAn?$AAo?$AA?$AA@ 0000000180021d98     libucrt:lcidtoname_downlevel.obj
 0002:00005da8       ??_C@_1M@DANKKHJ@?$AAs?$AAe?$AA?9?$AAs?$AAe?$AA?$AA@ 0000000180021da8     libucrt:lcidtoname_downlevel.obj
 0002:00005db8       ??_C@_1M@PNBLONPJ@?$AAs?$AAk?$AA?9?$AAs?$AAk?$AA?$AA@ 0000000180021db8     libucrt:lcidtoname_downlevel.obj
 0002:00005dc8       ??_C@_1M@LFMODOAL@?$AAs?$AAl?$AA?9?$AAs?$AAi?$AA?$AA@ 0000000180021dc8     libucrt:lcidtoname_downlevel.obj
 0002:00005dd8       ??_C@_1O@DFKOMPG@?$AAs?$AAm?$AAa?$AA?9?$AAn?$AAo?$AA?$AA@ 0000000180021dd8     libucrt:lcidtoname_downlevel.obj
 0002:00005de8       ??_C@_1O@NDKPBNNH@?$AAs?$AAm?$AAa?$AA?9?$AAs?$AAe?$AA?$AA@ 0000000180021de8     libucrt:lcidtoname_downlevel.obj
 0002:00005df8       ??_C@_1O@PLLKBHAB@?$AAs?$AAm?$AAj?$AA?9?$AAn?$AAo?$AA?$AA@ 0000000180021df8     libucrt:lcidtoname_downlevel.obj
 0002:00005e08       ??_C@_1O@CLEPOGCA@?$AAs?$AAm?$AAj?$AA?9?$AAs?$AAe?$AA?$AA@ 0000000180021e08     libucrt:lcidtoname_downlevel.obj
 0002:00005e18       ??_C@_1O@DLGJGKMK@?$AAs?$AAm?$AAn?$AA?9?$AAf?$AAi?$AA?$AA@ 0000000180021e18     libucrt:lcidtoname_downlevel.obj
 0002:00005e28       ??_C@_1O@OJDJGAJC@?$AAs?$AAm?$AAs?$AA?9?$AAf?$AAi?$AA?$AA@ 0000000180021e28     libucrt:lcidtoname_downlevel.obj
 0002:00005e38       ??_C@_1M@BOFOGHPB@?$AAs?$AAq?$AA?9?$AAa?$AAl?$AA?$AA@ 0000000180021e38     libucrt:lcidtoname_downlevel.obj
 0002:00005e48       ??_C@_1BG@LJBBIPGB@?$AAs?$AAr?$AA?9?$AAb?$AAa?$AA?9?$AAc?$AAy?$AAr?$AAl?$AA?$AA@ 0000000180021e48     libucrt:lcidtoname_downlevel.obj
 0002:00005e60       ??_C@_1BG@JLBENFOE@?$AAs?$AAr?$AA?9?$AAb?$AAa?$AA?9?$AAl?$AAa?$AAt?$AAn?$AA?$AA@ 0000000180021e60     libucrt:lcidtoname_downlevel.obj
 0002:00005e78       ??_C@_1BG@KODPNHE@?$AAs?$AAr?$AA?9?$AAs?$AAp?$AA?9?$AAc?$AAy?$AAr?$AAl?$AA?$AA@ 0000000180021e78     libucrt:lcidtoname_downlevel.obj
 0002:00005e90       ??_C@_1BG@CIOGKHPB@?$AAs?$AAr?$AA?9?$AAs?$AAp?$AA?9?$AAl?$AAa?$AAt?$AAn?$AA?$AA@ 0000000180021e90     libucrt:lcidtoname_downlevel.obj
 0002:00005ea8       ??_C@_1M@NGFJLMAC@?$AAs?$AAv?$AA?9?$AAf?$AAi?$AA?$AA@ 0000000180021ea8     libucrt:lcidtoname_downlevel.obj
 0002:00005eb8       ??_C@_1M@MPJEJAJC@?$AAs?$AAv?$AA?9?$AAs?$AAe?$AA?$AA@ 0000000180021eb8     libucrt:lcidtoname_downlevel.obj
 0002:00005ec8       ??_C@_1M@MPNDHLFK@?$AAs?$AAw?$AA?9?$AAk?$AAe?$AA?$AA@ 0000000180021ec8     libucrt:lcidtoname_downlevel.obj
 0002:00005ed8       ??_C@_1O@KOHBJJI@?$AAs?$AAy?$AAr?$AA?9?$AAs?$AAy?$AA?$AA@ 0000000180021ed8     libucrt:lcidtoname_downlevel.obj
 0002:00005ee8       ??_C@_1M@LDCEFHA@?$AAt?$AAa?$AA?9?$AAi?$AAn?$AA?$AA@ 0000000180021ee8     libucrt:lcidtoname_downlevel.obj
 0002:00005ef8       ??_C@_1M@CNJOFAK@?$AAt?$AAe?$AA?9?$AAi?$AAn?$AA?$AA@ 0000000180021ef8     libucrt:lcidtoname_downlevel.obj
 0002:00005f08       ??_C@_1M@GNAECACD@?$AAt?$AAh?$AA?9?$AAt?$AAh?$AA?$AA@ 0000000180021f08     libucrt:lcidtoname_downlevel.obj
 0002:00005f18       ??_C@_1M@CHBIHOJO@?$AAt?$AAn?$AA?9?$AAz?$AAa?$AA?$AA@ 0000000180021f18     libucrt:lcidtoname_downlevel.obj
 0002:00005f28       ??_C@_1M@GCCMIGPJ@?$AAt?$AAr?$AA?9?$AAt?$AAr?$AA?$AA@ 0000000180021f28     libucrt:lcidtoname_downlevel.obj
 0002:00005f38       ??_C@_1M@CELMCNBK@?$AAt?$AAt?$AA?9?$AAr?$AAu?$AA?$AA@ 0000000180021f38     libucrt:lcidtoname_downlevel.obj
 0002:00005f48       ??_C@_1M@KLMCELGA@?$AAu?$AAk?$AA?9?$AAu?$AAa?$AA?$AA@ 0000000180021f48     libucrt:lcidtoname_downlevel.obj
 0002:00005f58       ??_C@_1M@EPAJJAJF@?$AAu?$AAr?$AA?9?$AAp?$AAk?$AA?$AA@ 0000000180021f58     libucrt:lcidtoname_downlevel.obj
 0002:00005f68       ??_C@_1BG@GEGPMCDJ@?$AAu?$AAz?$AA?9?$AAu?$AAz?$AA?9?$AAc?$AAy?$AAr?$AAl?$AA?$AA@ 0000000180021f68     libucrt:lcidtoname_downlevel.obj
 0002:00005f80       ??_C@_1BG@EGGKJILM@?$AAu?$AAz?$AA?9?$AAu?$AAz?$AA?9?$AAl?$AAa?$AAt?$AAn?$AA?$AA@ 0000000180021f80     libucrt:lcidtoname_downlevel.obj
 0002:00005f98       ??_C@_1M@GFOCLFF@?$AAv?$AAi?$AA?9?$AAv?$AAn?$AA?$AA@ 0000000180021f98     libucrt:lcidtoname_downlevel.obj
 0002:00005fa8       ??_C@_1M@CPAMEDFI@?$AAx?$AAh?$AA?9?$AAz?$AAa?$AA?$AA@ 0000000180021fa8     libucrt:lcidtoname_downlevel.obj
 0002:00005fb8       ??_C@_1O@EBKIFIGN@?$AAz?$AAh?$AA?9?$AAc?$AAh?$AAs?$AA?$AA@ 0000000180021fb8     libucrt:lcidtoname_downlevel.obj
 0002:00005fc8       ??_C@_1O@NMHPGANE@?$AAz?$AAh?$AA?9?$AAc?$AAh?$AAt?$AA?$AA@ 0000000180021fc8     libucrt:lcidtoname_downlevel.obj
 0002:00005fd8       ??_C@_1M@LPINJOMC@?$AAz?$AAh?$AA?9?$AAc?$AAn?$AA?$AA@ 0000000180021fd8     libucrt:lcidtoname_downlevel.obj
 0002:00005fe8       ??_C@_1M@OCJEJODD@?$AAz?$AAh?$AA?9?$AAh?$AAk?$AA?$AA@ 0000000180021fe8     libucrt:lcidtoname_downlevel.obj
 0002:00005ff8       ??_C@_1M@DNDLJINH@?$AAz?$AAh?$AA?9?$AAm?$AAo?$AA?$AA@ 0000000180021ff8     libucrt:lcidtoname_downlevel.obj
 0002:00006008       ??_C@_1M@MBFDNDND@?$AAz?$AAh?$AA?9?$AAs?$AAg?$AA?$AA@ 0000000180022008     libucrt:lcidtoname_downlevel.obj
 0002:00006018       ??_C@_1M@IMEPLEPE@?$AAz?$AAh?$AA?9?$AAt?$AAw?$AA?$AA@ 0000000180022018     libucrt:lcidtoname_downlevel.obj
 0002:00006028       ??_C@_1M@BBGHNHJP@?$AAz?$AAu?$AA?9?$AAz?$AAa?$AA?$AA@ 0000000180022028     libucrt:lcidtoname_downlevel.obj
 0002:00006034       ??_C@_00CNPNBAHC@?$AA@     0000000180022034     libucrt:mbrtowc.obj
 0002:00006040       ?large_power_data@?1??multiply_by_power_of_ten@__crt_strtox@@YA_NAEAUbig_integer@2@I@Z@4QBIB 0000000180022040     libucrt:cfout.obj
 0002:00006950       ?large_power_indices@?1??multiply_by_power_of_ten@__crt_strtox@@YA_NAEAUbig_integer@2@I@Z@4QBUunpack_index@?1??12@YA_N0I@Z@B 0000000180022950     libucrt:cfout.obj
 0002:000069e8       ?small_powers_of_ten@?1??multiply_by_power_of_ten@__crt_strtox@@YA_NAEAUbig_integer@2@I@Z@4QBIB 00000001800229e8     libucrt:cfout.obj
 0002:00006a0c       ??_C@_01GBGANLPD@0?$AA@    0000000180022a0c     libucrt:cfout.obj
 0002:00006a10       ??_C@_05DNEBIAHO@1?$CDINF?$AA@ 0000000180022a10     libucrt:cfout.obj
 0002:00006a18       ??_C@_06IMKFLFPG@1?$CDQNAN?$AA@ 0000000180022a18     libucrt:cfout.obj
 0002:00006a20       ??_C@_06PGGFOGJG@1?$CDSNAN?$AA@ 0000000180022a20     libucrt:cfout.obj
 0002:00006a28       ??_C@_05PHHOCPM@1?$CDIND?$AA@ 0000000180022a28     libucrt:cfout.obj
 0002:00006c80       ??_C@_1BA@BALFACEM@?$AAC?$AAO?$AAN?$AAO?$AAU?$AAT?$AA$?$AA?$AA@ 0000000180022c80     libucrt:initcon.obj
 0002:00006c90       __log10_256_lead           0000000180022c90     libucrt:log10_256_lead_tail_table.obj
 0002:000074a0       __log10_256_tail           00000001800234a0     libucrt:log10_256_lead_tail_table.obj
 0002:00007cb0       __log_F_inv_qword          0000000180023cb0     libucrt:log_f_inv_qword_table.obj
 0002:000084c0       ??_C@_05HGHHAHAP@log10?$AA@ 00000001800244c0     libucrt:log_special.obj
 0002:000084e0       ??_C@_1BK@DBDEIDLH@?$AAK?$AAE?$AAR?$AAN?$AAE?$AAL?$AA3?$AA2?$AA?4?$AAD?$AAL?$AAL@ 00000001800244e0     DelayImp:delayhlp.obj
 0002:00008500       ??_C@_0BI@OMNLIJDB@AcquireSRWLockExclusive@ 0000000180024500     DelayImp:delayhlp.obj
 0002:00008518       ??_C@_0BI@HMIEPCNJ@ReleaseSRWLockExclusive@ 0000000180024518     DelayImp:delayhlp.obj
 0002:00008530       __pfnDliFailureHook2       0000000180024530     DelayImp:delayhk1.obj
 0002:00008540       _load_config_used          0000000180024540     LIBCMT:loadcfg.obj
 0002:00008640       ??_C@_1GI@GIJPLAPI@?$AAc?$AA?3?$AA?2?$AAu?$AAs?$AAe?$AAr?$AAs?$AA?2?$AAa?$AAl?$AAi?$AAc?$AAe?$AA?2@ 0000000180024640     node_module.obj
 0002:000086b0       ??_C@_1IM@OMLLGGM@?$AAn?$AAa?$AAp?$AAi?$AA_?$AAg?$AAe?$AAt?$AA_?$AAc?$AAb?$AA_?$AAi?$AAn?$AAf@ 00000001800246b0     node_module.obj
 0002:00008740       ??_C@_1GE@OFECHPKL@?$AAn?$AAa?$AAp?$AAi?$AA_?$AAt?$AAy?$AAp?$AAe?$AAo?$AAf?$AA?$CI?$AAe?$AAn?$AAv@ 0000000180024740     node_module.obj
 0002:000087a4       ??_C@_04HKFDNBLD@init@     00000001800247a4     node_module.obj
 0002:000087b0       ??_C@_1IA@HCDEFFNH@?$AAn?$AAa?$AAp?$AAi?$AA_?$AAo?$AAk?$AA?5?$AA?$DN?$AA?$DN?$AA?5?$AAn?$AAa?$AAp?$AAi@ 00000001800247b0     node_module.obj
 0002:00008830       ??_C@_06HDLLMMEJ@update@   0000000180024830     node_module.obj
 0002:00008838       ??_C@_0DE@PFDPMCCA@c?3?2users?2alice?2documents?2cos?2so@ 0000000180024838     node_module.obj
 0002:0000886c       ??_C@_02LCNFMBND@an@       000000018002486c     node_module.obj
 0002:00008870       ??_C@_1KK@MCDPPLFG@?$AAi?$AA?5?$AA?$DO?$AA?$DN?$AA?5?$AA0?$AA?5?$AA?$CG?$AA?$CG?$AA?5?$AAs?$AAt?$AAa?$AAt?$AAi@ 0000000180024870     node_module.obj
 0002:00008920       ??_C@_1HK@EJBODHIE@?$AAc?$AA?3?$AA?2?$AAu?$AAs?$AAe?$AAr?$AAs?$AA?2?$AAa?$AAl?$AAi?$AAc?$AAe?$AA?2@ 0000000180024920     node_module.obj
 0002:000089a0       ??_C@_0BD@OLBABOEK@vector?$DMT?$DO?5too?5long@ 00000001800249a0     node_module.obj
 0002:000089b8       ?agent_centering_factor@@3MA 00000001800249b8     node_module.obj
 0002:000089bc       ?agent_morphogen_diffuse@@3MA 00000001800249bc     node_module.obj
 0002:000089c0       ?agent_randomwalk@@3MA     00000001800249c0     node_module.obj
 0002:000089c4       ?agent_max_speed@@3MA      00000001800249c4     node_module.obj
 0002:000089c8       ?agent_size@@3MA           00000001800249c8     node_module.obj
 0002:000089cc       ?agent_flow_factor@@3MA    00000001800249cc     node_module.obj
 0002:000089d0       ?agent_avoidance_factor@@3MA 00000001800249d0     node_module.obj
 0002:000089d4       ?agent_max_acc@@3MA        00000001800249d4     node_module.obj
 0002:000089d8       ?agent_range_of_view@@3MA  00000001800249d8     node_module.obj
 0002:000089dc       ?agent_personal_space@@3MA 00000001800249dc     node_module.obj
 0002:000089e0       __pfnDliNotifyHook2        00000001800249e0     win_delay_load_hook.obj
 0002:000089e8       ??_C@_08HCOMDCCD@iojs?4exe@ 00000001800249e8     win_delay_load_hook.obj
 0002:000089f8       ??_C@_08JDDNMFDB@node?4exe@ 00000001800249f8     win_delay_load_hook.obj
 0002:00008a04       __real@2f800000            0000000180024a04     node_module.obj
 0002:00008a08       __real@3727c5ac            0000000180024a08     node_module.obj
 0002:00008a0c       __real@37a7c5ac            0000000180024a0c     node_module.obj
 0002:00008a10       __real@3a51b717            0000000180024a10     node_module.obj
 0002:00008a14       __real@3a83126f            0000000180024a14     node_module.obj
 0002:00008a18       __real@3ba3d70a            0000000180024a18     node_module.obj
 0002:00008a1c       __real@3c000000            0000000180024a1c     node_module.obj
 0002:00008a20       __real@3c03126f            0000000180024a20     node_module.obj
 0002:00008a24       __real@3c23d70a            0000000180024a24     node_module.obj
 0002:00008a28       __real@3d4ccccd            0000000180024a28     node_module.obj
 0002:00008a2c       __real@3dcccccd            0000000180024a2c     node_module.obj
 0002:00008a30       __real@3e4ccccd            0000000180024a30     node_module.obj
 0002:00008a34       __real@3e99999a            0000000180024a34     node_module.obj
 0002:00008a38       __real@3f000000            0000000180024a38     node_module.obj
 0002:00008a3c       __real@3f490fdb            0000000180024a3c     node_module.obj
 0002:00008a40       __real@3f666666            0000000180024a40     node_module.obj
 0002:00008a44       __real@3f7d70a4            0000000180024a44     node_module.obj
 0002:00008a48       __real@3f7fbe77            0000000180024a48     node_module.obj
 0002:00008a4c       __real@3f800000            0000000180024a4c     node_module.obj
 0002:00008a50       __real@3fc999999999999a    0000000180024a50     node_module.obj
 0002:00008a58       __real@3fe0000000000000    0000000180024a58     node_module.obj
 0002:00008a60       __real@3fe66666            0000000180024a60     node_module.obj
 0002:00008a68       __real@3fef0a3d70a3d70a    0000000180024a68     node_module.obj
 0002:00008a70       __real@3ff0000000000000    0000000180024a70     node_module.obj
 0002:00008a78       __real@401921fb54442d18    0000000180024a78     node_module.obj
 0002:00008a80       __real@40800000            0000000180024a80     node_module.obj
 0002:00008a84       __real@40a00000            0000000180024a84     node_module.obj
 0002:00008a88       __real@40c90fdb            0000000180024a88     node_module.obj
 0002:00008a8c       __real@41000000            0000000180024a8c     node_module.obj
 0002:00008a90       __real@427c0000            0000000180024a90     node_module.obj
 0002:00008a94       __real@42fc0000            0000000180024a94     node_module.obj
 0002:00008a98       __real@42fe0000            0000000180024a98     node_module.obj
 0002:00008aa0       __real@43e0000000000000    0000000180024aa0     node_module.obj
 0002:00008aa8       __real@467ffe00            0000000180024aa8     node_module.obj
 0002:00008aac       __real@bf800000            0000000180024aac     node_module.obj
 0002:00008ab0       __xmm@0000000000000000000000003f800000 0000000180024ab0     node_module.obj
 0002:00008ac0       __xmm@00000000000000003f80000000000000 0000000180024ac0     node_module.obj
 0002:00008ad0       __xmm@000000003f8000000000000000000000 0000000180024ad0     node_module.obj
 0002:00008ae0       __xmm@3e4ccccd3f0000003f0000003f000000 0000000180024ae0     node_module.obj
 0002:00008af0       __xmm@3f75c28f3f75c28f3f75c28f3f75c28f 0000000180024af0     node_module.obj
 0002:00008b00       __xmm@3f800000000000000000000000000000 0000000180024b00     node_module.obj
 0002:00008b10       __xmm@80000000800000008000000080000000 0000000180024b10     node_module.obj
 0002:00008b20       ??_C@_05FFFCHCED@acosf?$AA@ 0000000180024b20     libucrt:acosf.obj
 0002:00008b28       __real@3b81ce6b            0000000180024b28     libucrt:acosf.obj
 0002:00008b30       __real@3c91a62633145c07    0000000180024b30     libucrt:acosf.obj
 0002:00008b38       __real@3d678bdd            0000000180024b38     libucrt:acosf.obj
 0002:00008b3c       __real@3e3c94dc            0000000180024b3c     libucrt:acosf.obj
 0002:00008b40       __real@3f561f0d            0000000180024b40     libucrt:acosf.obj
 0002:00008b44       __real@3f8d6fa5            0000000180024b44     libucrt:acosf.obj
 0002:00008b48       __real@3fc90fdb            0000000180024b48     libucrt:acosf.obj
 0002:00008b50       __real@3ff921fb54442d18    0000000180024b50     libucrt:acosf.obj
 0002:00008b58       __real@40000000            0000000180024b58     libucrt:acosf.obj
 0002:00008b60       __real@400921fb54442d18    0000000180024b60     libucrt:acosf.obj
 0002:00008b68       __real@40490fdb            0000000180024b68     libucrt:acosf.obj
 0002:00008b6c       __real@bc5b3fe1            0000000180024b6c     libucrt:acosf.obj
 0002:00008dc0       ??_C@_05KGFAIMPG@sqrtf?$AA@ 0000000180024dc0     libucrt:sqrtf.obj
 0002:00008f40       ??_C@_04LAGPAAHP@sinf?$AA@ 0000000180024f40     libucrt:sincos_special.obj
 0002:00008f48       ??_C@_04OBBKPIAC@cosf?$AA@ 0000000180024f48     libucrt:sincos_special.obj
 0002:00008f50       __Lcosfarray               0000000180024f50     libucrt:lsincosf_array.obj
 0002:00008f80       __Lsinfarray               0000000180024f80     libucrt:lsincosf_array.obj
 0002:00008fa0       __L_2_by_pi_bits           0000000180024fa0     libucrt:l2_by_pi_bits.obj
 0002:00009160       ??_R4exception@std@@6B@    0000000180025160     libcpmt:xthrow.obj
 0002:00009188       ??_R3exception@std@@8      0000000180025188     libcpmt:xthrow.obj
 0002:000091a0       ??_R2exception@std@@8      00000001800251a0     libcpmt:xthrow.obj
 0002:000091b0       ??_R1A@?0A@EA@exception@std@@8 00000001800251b0     libcpmt:xthrow.obj
 0002:000091d8       ??_R4bad_alloc@std@@6B@    00000001800251d8     libcpmt:xthrow.obj
 0002:00009200       ??_R3bad_alloc@std@@8      0000000180025200     libcpmt:xthrow.obj
 0002:00009218       ??_R2bad_alloc@std@@8      0000000180025218     libcpmt:xthrow.obj
 0002:00009230       ??_R1A@?0A@EA@bad_alloc@std@@8 0000000180025230     libcpmt:xthrow.obj
 0002:00009258       ??_R4logic_error@std@@6B@  0000000180025258     libcpmt:xthrow.obj
 0002:00009280       ??_R3logic_error@std@@8    0000000180025280     libcpmt:xthrow.obj
 0002:00009298       ??_R2logic_error@std@@8    0000000180025298     libcpmt:xthrow.obj
 0002:000092b0       ??_R1A@?0A@EA@logic_error@std@@8 00000001800252b0     libcpmt:xthrow.obj
 0002:000092d8       ??_R4length_error@std@@6B@ 00000001800252d8     libcpmt:xthrow.obj
 0002:00009300       ??_R3length_error@std@@8   0000000180025300     libcpmt:xthrow.obj
 0002:00009318       ??_R2length_error@std@@8   0000000180025318     libcpmt:xthrow.obj
 0002:00009338       ??_R1A@?0A@EA@length_error@std@@8 0000000180025338     libcpmt:xthrow.obj
 0002:00009360       ??_R4type_info@@6B@        0000000180025360     LIBCMT:std_type_info_static.obj
 0002:00009388       ??_R3type_info@@8          0000000180025388     LIBCMT:std_type_info_static.obj
 0002:000093a0       ??_R2type_info@@8          00000001800253a0     LIBCMT:std_type_info_static.obj
 0002:000093b0       ??_R1A@?0A@EA@type_info@@8 00000001800253b0     LIBCMT:std_type_info_static.obj
 0002:000093d8       ??_R4bad_array_new_length@std@@6B@ 00000001800253d8     LIBCMT:throw_bad_alloc.obj
 0002:00009400       ??_R3bad_array_new_length@std@@8 0000000180025400     LIBCMT:throw_bad_alloc.obj
 0002:00009418       ??_R2bad_array_new_length@std@@8 0000000180025418     LIBCMT:throw_bad_alloc.obj
 0002:00009438       ??_R1A@?0A@EA@bad_array_new_length@std@@8 0000000180025438     LIBCMT:throw_bad_alloc.obj
 0002:00009818       __rtc_iaa                  0000000180025818     LIBCMT:initsect.obj
 0002:00009820       __rtc_izz                  0000000180025820     LIBCMT:initsect.obj
 0002:00009828       __rtc_taa                  0000000180025828     LIBCMT:initsect.obj
 0002:00009830       __rtc_tzz                  0000000180025830     LIBCMT:initsect.obj
 0002:0000acc0       _TI2?AVbad_alloc@std@@     0000000180026cc0     libcpmt:xthrow.obj
 0002:0000ace0       _CTA2?AVbad_alloc@std@@    0000000180026ce0     libcpmt:xthrow.obj
 0002:0000acf8       _CT??_R0?AVbad_alloc@std@@@8??0bad_alloc@std@@QEAA@AEBV01@@Z24 0000000180026cf8     libcpmt:xthrow.obj
 0002:0000ad20       _CT??_R0?AVexception@std@@@8??0exception@std@@QEAA@AEBV01@@Z24 0000000180026d20     libcpmt:xthrow.obj
 0002:0000ad48       _CT??_R0?AVlogic_error@std@@@8??0logic_error@std@@QEAA@AEBV01@@Z24 0000000180026d48     libcpmt:xthrow.obj
 0002:0000ad70       _TI3?AVlength_error@std@@  0000000180026d70     libcpmt:xthrow.obj
 0002:0000ad90       _CTA3?AVlength_error@std@@ 0000000180026d90     libcpmt:xthrow.obj
 0002:0000adb0       _CT??_R0?AVlength_error@std@@@8??0length_error@std@@QEAA@AEBV01@@Z24 0000000180026db0     libcpmt:xthrow.obj
 0002:0000add8       _TI3?AVbad_array_new_length@std@@ 0000000180026dd8     LIBCMT:throw_bad_alloc.obj
 0002:0000adf8       _CTA3?AVbad_array_new_length@std@@ 0000000180026df8     LIBCMT:throw_bad_alloc.obj
 0002:0000ae18       _CT??_R0?AVbad_array_new_length@std@@@8??0bad_array_new_length@std@@QEAA@AEBV01@@Z24 0000000180026e18     LIBCMT:throw_bad_alloc.obj
 0002:0000ae3c       __DELAY_IMPORT_DESCRIPTOR_node_exe 0000000180026e3c     node:node.exe
 0002:0000ae5c       __NULL_DELAY_IMPORT_DESCRIPTOR 0000000180026e5c     node:node.exe
 0002:0000aeb0       \177node_NULL_THUNK_DATA_DLN 0000000180026eb0     node:node.exe
 0002:0000af50       \177node_NULL_THUNK_DATA_DLB 0000000180026f50     node:node.exe
 0002:0000afc8       __IMPORT_DESCRIPTOR_KERNEL32 0000000180026fc8     kernel32:KERNEL32.dll
 0002:0000afdc       __NULL_IMPORT_DESCRIPTOR   0000000180026fdc     kernel32:KERNEL32.dll
 0003:00000000       __security_cookie_complement 0000000180028000     LIBCMT:gs_cookie.obj
 0003:00000008       __security_cookie          0000000180028008     LIBCMT:gs_cookie.obj
 0003:00000010       __scrt_native_dllmain_reason 0000000180028010     LIBCMT:utility.obj
 0003:00000018       __isa_available            0000000180028018     LIBCMT:cpu_disp.obj
 0003:0000001c       __isa_enabled              000000018002801c     LIBCMT:cpu_disp.obj
 0003:00000020       __memcpy_nt_iters          0000000180028020     LIBCMT:cpu_disp.obj
 0003:00000040       _iob                       0000000180028040     libucrt:_file.obj
 0003:00000150       __abort_behavior           0000000180028150     libucrt:abort.obj
 0003:00000160       __badioinfo                0000000180028160     libucrt:ioinit.obj
 0003:000001b0       __acrt_initial_locale_data 00000001800281b0     libucrt:nlsdata.obj
 0003:00000308       __acrt_initial_locale_pointers 0000000180028308     libucrt:nlsdata.obj
 0003:00000318       __acrt_wide_c_locale_string 0000000180028318     libucrt:nlsdata.obj
 0003:00000630       __acrt_initial_multibyte_data 0000000180028630     libucrt:mbctype.obj
 0003:00000858       _pwctype                   0000000180028858     libucrt:ctype.obj
 0003:00000860       __globallocalestatus       0000000180028860     libucrt:glstatus.obj
 0003:00000870       __acrt_lconv_c             0000000180028870     libucrt:localeconv.obj
 0003:00000908       __acrt_lconv_static_decimal 0000000180028908     libucrt:localeconv.obj
 0003:0000090c       __acrt_lconv_static_W_decimal 000000018002890c     libucrt:localeconv.obj
 0003:00000910       _lookuptrailbytes          0000000180028910     libucrt:read.obj
 0003:00000a30       _fltused                   0000000180028a30     LIBCMT:fltused.obj
 0003:00000a40       ?agent_lookahead_frames@@3MA 0000000180028a40     node_module.obj
 0003:00000aa0       ??_R0?AVbad_alloc@std@@@8  0000000180028aa0     libcpmt:xthrow.obj
 0003:00000ac8       ??_R0?AVexception@std@@@8  0000000180028ac8     libcpmt:xthrow.obj
 0003:00000af0       ??_R0?AVlogic_error@std@@@8 0000000180028af0     libcpmt:xthrow.obj
 0003:00000b18       ??_R0?AVlength_error@std@@@8 0000000180028b18     libcpmt:xthrow.obj
 0003:00000b40       ??_R0?AVtype_info@@@8      0000000180028b40     LIBCMT:std_type_info_static.obj
 0003:00000b60       ??_R0?AVbad_array_new_length@std@@@8 0000000180028b60     LIBCMT:throw_bad_alloc.obj
 0003:00000b90       __imp_napi_get_value_double 0000000180028b90     node:node.exe
 0003:00000b98       __imp_napi_module_register 0000000180028b98     node:node.exe
 0003:00000ba0       __imp_napi_define_properties 0000000180028ba0     node:node.exe
 0003:00000ba8       __imp_napi_typeof          0000000180028ba8     node:node.exe
 0003:00000bb0       __imp_napi_get_cb_info     0000000180028bb0     node:node.exe
 0003:00000bb8       __imp_napi_create_external_arraybuffer 0000000180028bb8     node:node.exe
 0003:00000bc0       \177node_NULL_THUNK_DATA_DLA 0000000180028bc0     node:node.exe
 0003:00000bd0       __hmod__node_exe           0000000180028bd0     node:node.exe
 0003:00001150       ?__type_info_root_node@@3U__type_info_node@@A 0000000180029150     LIBCMT:tncleanup.obj
 0003:00001160       ?_OptionsStorage@?1??__local_stdio_scanf_options@@9@4_KA 0000000180029160     LIBCMT:default_local_stdio_options.obj
 0003:00001168       __scrt_current_native_startup_state 0000000180029168     LIBCMT:utility.obj
 0003:00001170       __scrt_native_startup_lock 0000000180029170     LIBCMT:utility.obj
 0003:000011b0       __scrt_debugger_hook_flag  00000001800291b0     LIBCMT:utility_desktop.obj
 0003:000011b4       __favor                    00000001800291b4     LIBCMT:cpu_disp.obj
 0003:000011b8       ?__WinRTOutOfMemoryExceptionCallback@@3P6APEAXXZEA 00000001800291b8     libvcruntime:ehhelpers.obj
 0003:000011c0       ?pArgList@UnDecorator@@0PEAVReplicator@@EA 00000001800291c0     libvcruntime:undname.obj
 0003:000011c8       ?pZNameList@UnDecorator@@0PEAVReplicator@@EA 00000001800291c8     libvcruntime:undname.obj
 0003:000011d0       ?pTemplateArgList@UnDecorator@@0PEAVReplicator@@EA 00000001800291d0     libvcruntime:undname.obj
 0003:000011d8       ?gName@UnDecorator@@0PEBDEB 00000001800291d8     libvcruntime:undname.obj
 0003:000011e0       ?name@UnDecorator@@0PEBDEB 00000001800291e0     libvcruntime:undname.obj
 0003:000011e8       ?disableFlags@UnDecorator@@0KA 00000001800291e8     libvcruntime:undname.obj
 0003:000011ec       ?fExplicitTemplateParams@UnDecorator@@0_NA 00000001800291ec     libvcruntime:undname.obj
 0003:000011ed       ?fGetTemplateArgumentList@UnDecorator@@0_NA 00000001800291ed     libvcruntime:undname.obj
 0003:000011f0       ?m_pGetParameter@UnDecorator@@0P6APEADJ@ZEA 00000001800291f0     libvcruntime:undname.obj
 0003:000011f8       ?m_CHPENameOffset@UnDecorator@@0KA 00000001800291f8     libvcruntime:undname.obj
 0003:000011fc       ?m_recursionLevel@UnDecorator@@0KA 00000001800291fc     libvcruntime:undname.obj
 0003:00001330       __pPurecall                0000000180029330     libvcruntime:purevirt_data.obj
 0003:00001338       _nstream                   0000000180029338     libucrt:_file.obj
 0003:00001340       __piob                     0000000180029340     libucrt:_file.obj
 0003:00001348       _cflush                    0000000180029348     libucrt:_file.obj
 0003:00001370       ?c_exit_complete@?1???R<lambda_6e4b09c48022b2350581041d5f6b0c4c>@@QEBA@XZ@4_NA 0000000180029370     libucrt:exit.obj
 0003:00001488       _environ_table             0000000180029488     libucrt:environment_initialization.obj
 0003:00001490       _wenviron_table            0000000180029490     libucrt:environment_initialization.obj
 0003:00001498       __dcrt_initial_wide_environment 0000000180029498     libucrt:environment_initialization.obj
 0003:000014a0       __dcrt_initial_narrow_environment 00000001800294a0     libucrt:environment_initialization.obj
 0003:000014a8       __acrt_atexit_table        00000001800294a8     libucrt:onexit.obj
 0003:000014c0       __acrt_at_quick_exit_table 00000001800294c0     libucrt:onexit.obj
 0003:000014e0       __pioinfo                  00000001800294e0     libucrt:ioinit.obj
 0003:000018e0       _nhandle                   00000001800298e0     libucrt:ioinit.obj
 0003:00001ab0       __acrt_stdout_buffer       0000000180029ab0     libucrt:_sftbuf.obj
 0003:00001ab8       __acrt_stderr_buffer       0000000180029ab8     libucrt:_sftbuf.obj
 0003:00001ac0       __acrt_locale_changed_data 0000000180029ac0     libucrt:wsetlocale.obj
 0003:00001ac8       __acrt_current_locale_data 0000000180029ac8     libucrt:nlsdata.obj
 0003:00001d40       _mbctype                   0000000180029d40     libucrt:mbctype.obj
 0003:00001d48       _mbcasemap                 0000000180029d48     libucrt:mbctype.obj
 0003:00001d50       __acrt_current_multibyte_data 0000000180029d50     libucrt:mbctype.obj
 0003:00001d60       _pgmptr                    0000000180029d60     libucrt:argv_data.obj
 0003:00001d68       __argc                     0000000180029d68     libucrt:argv_data.obj
 0003:00001d70       __argv                     0000000180029d70     libucrt:argv_data.obj
 0003:00001d78       __wargv                    0000000180029d78     libucrt:argv_data.obj
 0003:00001d80       _acmdln                    0000000180029d80     libucrt:argv_data.obj
 0003:00001d88       _wcmdln                    0000000180029d88     libucrt:argv_data.obj
 0003:00001d90       __acrt_heap                0000000180029d90     libucrt:heap_handle.obj
 0003:00001da4       __acrt_lconv_static_null   0000000180029da4     libucrt:localeconv.obj
 0003:00001da8       __acrt_lconv_static_W_null 0000000180029da8     libucrt:localeconv.obj
 0003:00001db8       __fma3_is_available        0000000180029db8     libucrt:fma3_available.obj
 0003:00001dbc       __use_fma3_lib             0000000180029dbc     libucrt:fma3_available.obj
 0003:00001dc0       ?DloadKernel32@@3PEAUHINSTANCE__@@EA 0000000180029dc0     DelayImp:delayhlp.obj
 0003:00001dc8       ?DloadAcquireSRWLockExclusive@@3P6AXPEA_K@ZEA 0000000180029dc8     DelayImp:delayhlp.obj
 0003:00001dd0       ?DloadReleaseSRWLockExclusive@@3P6AXPEA_K@ZEA 0000000180029dd0     DelayImp:delayhlp.obj
 0003:00001dd8       ?DloadSrwLock@@3_KA        0000000180029dd8     DelayImp:delayhlp.obj
 0003:00001de0       ?DloadSectionLockCount@@3KA 0000000180029de0     DelayImp:delayhlp.obj
 0003:00001de4       ?DloadSectionOldProtection@@3KA 0000000180029de4     DelayImp:delayhlp.obj
 0003:00001de8       ?DloadSectionCommitPermanent@@3KA 0000000180029de8     DelayImp:delayhlp.obj
 0003:00001df0       ?agent_field_of_view@@3MA  0000000180029df0     node_module.obj
 0003:00001df8       ?world_min@@3U?$tvec3@M$0A@@glm@@A 0000000180029df8     node_module.obj
 0003:00001e10       ?WorldMatrix@@3U?$tmat4x4@M$0A@@glm@@A 0000000180029e10     node_module.obj
 0003:00001e50       ?world_dim@@3U?$tvec3@M$0A@@glm@@A 0000000180029e50     node_module.obj
 0003:00001e60       ?WorldMatrixInverse@@3U?$tmat4x4@M$0A@@glm@@A 0000000180029e60     node_module.obj
 0003:00001ea0       ?shared@@3UShared@@A       0000000180029ea0     node_module.obj
 0003:0159f6b0       ?world_max@@3U?$tvec3@M$0A@@glm@@A 00000001815c76b0     node_module.obj
 0003:0159f6c0       ?world_scale@@3U?$tvec3@M$0A@@glm@@A 00000001815c76c0     node_module.obj
 0003:0159f6d0       ?_OptionsStorage@?1??__local_stdio_printf_options@@9@4_KA 00000001815c76d0     node_module.obj
 0003:0159f6d8       __scrt_ucrt_dll_is_in_use  00000001815c76d8     <common>
 0003:0159f6e0       __dyn_tls_init_callback    00000001815c76e0     <common>

 entry point at        0001:00006e88

 Static symbols

 0000:fea32000       .debug$S                   0000000180000000     kernel32:KERNEL32.dll
 0000:fea32000       .debug$S                   0000000180000000     an.exp
 0000:fea32000       .debug$S                   0000000180000000     kernel32:KERNEL32.dll
 0000:fea32000       .debug$S                   0000000180000000     kernel32:KERNEL32.dll
 0000:fea32000       .debug$S                   0000000180000000     kernel32:KERNEL32.dll
 0000:fea32000       .debug$S                   0000000180000000     kernel32:KERNEL32.dll
 0000:fea32000       .debug$S                   0000000180000000     kernel32:KERNEL32.dll
 0000:fea32000       .debug$S                   0000000180000000     kernel32:KERNEL32.dll
 0000:fea32000       .debug$S                   0000000180000000     kernel32:KERNEL32.dll
 0000:fea32000       .debug$S                   0000000180000000     kernel32:KERNEL32.dll
 0000:fea32000       .debug$S                   0000000180000000     kernel32:KERNEL32.dll
 0000:fea32000       .debug$S                   0000000180000000     kernel32:KERNEL32.dll
 0000:fea32000       .debug$S                   0000000180000000     kernel32:KERNEL32.dll
 0000:fea32000       .debug$S                   0000000180000000     kernel32:KERNEL32.dll
 0000:fea32000       .debug$S                   0000000180000000     kernel32:KERNEL32.dll
 0000:fea32000       .debug$S                   0000000180000000     kernel32:KERNEL32.dll
 0000:fea32000       .debug$S                   0000000180000000     kernel32:KERNEL32.dll
 0000:fea32000       .debug$S                   0000000180000000     kernel32:KERNEL32.dll
 0000:fea32000       .debug$S                   0000000180000000     kernel32:KERNEL32.dll
 0000:fea32000       .debug$S                   0000000180000000     kernel32:KERNEL32.dll
 0000:fea32000       .debug$S                   0000000180000000     kernel32:KERNEL32.dll
 0000:fea32000       .debug$S                   0000000180000000     kernel32:KERNEL32.dll
 0000:fea32000       .debug$S                   0000000180000000     kernel32:KERNEL32.dll
 0000:fea32000       .debug$S                   0000000180000000     kernel32:KERNEL32.dll
 0000:fea32000       .debug$S                   0000000180000000     kernel32:KERNEL32.dll
 0000:fea32000       .debug$S                   0000000180000000     kernel32:KERNEL32.dll
 0000:fea32000       .debug$S                   0000000180000000     kernel32:KERNEL32.dll
 0000:fea32000       .debug$S                   0000000180000000     kernel32:KERNEL32.dll
 0000:fea32000       .debug$S                   0000000180000000     kernel32:KERNEL32.dll
 0000:fea32000       .debug$S                   0000000180000000     kernel32:KERNEL32.dll
 0000:fea32000       .debug$S                   0000000180000000     kernel32:KERNEL32.dll
 0000:fea32000       .debug$S                   0000000180000000     kernel32:KERNEL32.dll
 0000:fea32000       .debug$S                   0000000180000000     kernel32:KERNEL32.dll
 0000:fea32000       .debug$S                   0000000180000000     kernel32:KERNEL32.dll
 0000:fea32000       .debug$S                   0000000180000000     kernel32:KERNEL32.dll
 0000:fea32000       .debug$S                   0000000180000000     kernel32:KERNEL32.dll
 0000:fea32000       .debug$S                   0000000180000000     kernel32:KERNEL32.dll
 0000:fea32000       .debug$S                   0000000180000000     kernel32:KERNEL32.dll
 0000:fea32000       .debug$S                   0000000180000000     kernel32:KERNEL32.dll
 0000:fea32000       .debug$S                   0000000180000000     kernel32:KERNEL32.dll
 0000:fea32000       .debug$S                   0000000180000000     kernel32:KERNEL32.dll
 0000:fea32000       .debug$S                   0000000180000000     kernel32:KERNEL32.dll
 0000:fea32000       .debug$S                   0000000180000000     kernel32:KERNEL32.dll
 0000:fea32000       .debug$S                   0000000180000000     kernel32:KERNEL32.dll
 0000:fea32000       .debug$S                   0000000180000000     kernel32:KERNEL32.dll
 0000:fea32000       .debug$S                   0000000180000000     kernel32:KERNEL32.dll
 0000:fea32000       .debug$S                   0000000180000000     kernel32:KERNEL32.dll
 0000:fea32000       .debug$S                   0000000180000000     kernel32:KERNEL32.dll
 0000:fea32000       .debug$S                   0000000180000000     kernel32:KERNEL32.dll
 0000:fea32000       .debug$S                   0000000180000000     kernel32:KERNEL32.dll
 0000:fea32000       .debug$S                   0000000180000000     kernel32:KERNEL32.dll
 0000:fea32000       .debug$S                   0000000180000000     kernel32:KERNEL32.dll
 0000:fea32000       .debug$S                   0000000180000000     kernel32:KERNEL32.dll
 0000:fea32000       .debug$S                   0000000180000000     kernel32:KERNEL32.dll
 0000:fea32000       .debug$S                   0000000180000000     kernel32:KERNEL32.dll
 0000:fea32000       .debug$S                   0000000180000000     kernel32:KERNEL32.dll
 0000:fea32000       .debug$S                   0000000180000000     kernel32:KERNEL32.dll
 0000:fea32000       .debug$S                   0000000180000000     kernel32:KERNEL32.dll
 0000:fea32000       .debug$S                   0000000180000000     kernel32:KERNEL32.dll
 0000:fea32000       .debug$S                   0000000180000000     kernel32:KERNEL32.dll
 0000:fea32000       .debug$S                   0000000180000000     kernel32:KERNEL32.dll
 0000:fea32000       .debug$S                   0000000180000000     kernel32:KERNEL32.dll
 0000:fea32000       .debug$S                   0000000180000000     kernel32:KERNEL32.dll
 0000:fea32000       .debug$S                   0000000180000000     kernel32:KERNEL32.dll
 0000:fea32000       .debug$S                   0000000180000000     kernel32:KERNEL32.dll
 0000:fea32000       .debug$S                   0000000180000000     kernel32:KERNEL32.dll
 0000:fea32000       .debug$S                   0000000180000000     kernel32:KERNEL32.dll
 0000:fea32000       .debug$S                   0000000180000000     kernel32:KERNEL32.dll
 0000:fea32000       .debug$S                   0000000180000000     kernel32:KERNEL32.dll
 0000:fea32000       .debug$S                   0000000180000000     kernel32:KERNEL32.dll
 0000:fea32000       .debug$S                   0000000180000000     kernel32:KERNEL32.dll
 0000:fea32000       .debug$S                   0000000180000000     kernel32:KERNEL32.dll
 0000:fea32000       .debug$S                   0000000180000000     kernel32:KERNEL32.dll
 0000:fea32000       .debug$S                   0000000180000000     kernel32:KERNEL32.dll
 0000:fea32000       .debug$S                   0000000180000000     kernel32:KERNEL32.dll
 0000:fea32000       .debug$S                   0000000180000000     kernel32:KERNEL32.dll
 0000:fea32000       .debug$S                   0000000180000000     kernel32:KERNEL32.dll
 0000:fea32000       .debug$S                   0000000180000000     kernel32:KERNEL32.dll
 0000:fea32000       .debug$S                   0000000180000000     kernel32:KERNEL32.dll
 0000:fea32000       .debug$S                   0000000180000000     kernel32:KERNEL32.dll
 0000:fea32000       .debug$S                   0000000180000000     kernel32:KERNEL32.dll
 0000:fea32000       .debug$S                   0000000180000000     kernel32:KERNEL32.dll
 0000:fea32000       .debug$S                   0000000180000000     kernel32:KERNEL32.dll
 0000:fea32000       .debug$S                   0000000180000000     kernel32:KERNEL32.dll
 0000:fea32000       .debug$S                   0000000180000000     kernel32:KERNEL32.dll
 0000:fea32000       .debug$S                   0000000180000000     node:node.exe
 0000:fea32000       .debug$S                   0000000180000000     kernel32:KERNEL32.dll
 0000:fea32000       .debug$S                   0000000180000000     kernel32:KERNEL32.dll
 0000:fea32000       .debug$S                   0000000180000000     kernel32:KERNEL32.dll
 0000:fea32000       .debug$S                   0000000180000000     kernel32:KERNEL32.dll
 0000:fea32000       .debug$S                   0000000180000000     kernel32:KERNEL32.dll
 0000:fea32000       .debug$S                   0000000180000000     kernel32:KERNEL32.dll
 0000:fea32000       .debug$S                   0000000180000000     kernel32:KERNEL32.dll
 0000:fea32000       .debug$S                   0000000180000000     kernel32:KERNEL32.dll
 0000:fea32000       .debug$S                   0000000180000000     node:node.exe
 0000:fea32000       .debug$S                   0000000180000000     node:node.exe
 0000:fea32000       .debug$S                   0000000180000000     node:node.exe
 0000:fea32000       .debug$S                   0000000180000000     node:node.exe
 0000:fea32000       .debug$S                   0000000180000000     node:node.exe
 0001:00000000       ??__Eworld_min@@YAXXZ      0000000180001000 f   node_module.obj
 0001:00000020       ??__Eworld_max@@YAXXZ      0000000180001020 f   node_module.obj
 0001:00000050       ??__Eworld_dim@@YAXXZ      0000000180001050 f   node_module.obj
 0001:000000a0       ??__Eworld_scale@@YAXXZ    00000001800010a0 f   node_module.obj
 0001:000000e0       ??__EWorldMatrix@@YAXXZ    00000001800010e0 f   node_module.obj
 0001:00000280       ??__EWorldMatrixInverse@@YAXXZ 0000000180001280 f   node_module.obj
 0001:000002a0       ??__Eshared@@YAXXZ         00000001800012a0 f   node_module.obj
 0001:00001810       $LN509                     0000000180002810     node_module.obj
 0001:00003a30       _register_an               0000000180004a30 f   node_module.obj
 0001:000067d0       ?load_exe_hook@@YAP6A_JXZIPEAUDelayLoadInfo@@@Z 00000001800077d0 f   win_delay_load_hook.obj
 0001:00006ae0       $$000000                   0000000180007ae0     LIBCMT:amdsecgs.obj
 0001:00006b58       ?dllmain_crt_dispatch@@YAHQEAUHINSTANCE__@@KQEAX@Z 0000000180007b58 f   LIBCMT:dll_dllmain.obj
 0001:00006ba8       ?dllmain_crt_process_attach@@YAHQEAUHINSTANCE__@@QEAX@Z 0000000180007ba8 f   LIBCMT:dll_dllmain.obj
 0001:00006cc4       ?dllmain_crt_process_detach@@YAH_N@Z 0000000180007cc4 f   LIBCMT:dll_dllmain.obj
 0001:00006d54       ?dllmain_dispatch@@YAHQEAUHINSTANCE__@@KQEAX@Z 0000000180007d54 f   LIBCMT:dll_dllmain.obj
 0001:000070ac       capture_current_context    00000001800080ac f   LIBCMT:gs_report.obj
 0001:0000711c       capture_previous_context   000000018000811c f   LIBCMT:gs_report.obj
 0001:00007e90       $$000000                   0000000180008e90     libvcruntime:memset.obj
 0001:00007f8c       MsetTab                    0000000180008f8c     libvcruntime:memset.obj
 0001:00008050       $$000000                   0000000180009050     libvcruntime:notify.obj
 0001:00008378       ?try_get_function@@YAPEAXW4function_id@?A0xbfd18cd1@@QEBDQEBW4module_id@2@2@Z 0000000180009378 f   libvcruntime:winapi_downlevel.obj
 0001:00008760       $$000000                   0000000180009760     libvcruntime:memcpy.obj
 0001:00008817       MoveSmall                  0000000180009817     libvcruntime:memcpy.obj
 0001:00008bd0       $$000000                   0000000180009bd0     libvcruntime:handlers.obj
 0001:00008e64       ??$?RV<lambda_0d412022a4b28cc8a401ea49574e8ae6>@@AEAV<lambda_a775ed57af18ba8e4d5dc780aa9068fe>@@V<lambda_975a71a6baa488a08f4e15f6b0339b9e>@@@?$__crt_seh_guarded_call@H@@QEAAH$$QEAV<lambda_0d412022a4b28cc8a401ea49574e8ae6>@@AEAV<lambda_a775ed57af18ba8e4d5dc780aa9068fe>@@$$QEAV<lambda_975a71a6baa488a08f4e15f6b0339b9e>@@@Z 0000000180009e64 f   libucrt:output.obj
 0001:00008ea4       ??$common_vsprintf@Vstandard_base@__crt_stdio_output@@_W@@YAH_KQEA_W0QEB_WQEAU__crt_locale_pointers@@QEAD@Z 0000000180009ea4 f   libucrt:output.obj
 0001:00009500       ??R<lambda_a775ed57af18ba8e4d5dc780aa9068fe>@@QEBAHXZ 000000018000a500 f   libucrt:output.obj
 0001:0000b020       ??$common_assert_to_message_box@_W@@YAXQEB_W0IQEAX@Z 000000018000c020 f   libucrt:assert.obj
 0001:0000b0e4       ??$common_assert_to_message_box_build_string@_W@@YAXQEA_W_KQEB_W2IQEAX@Z 000000018000c0e4 f   libucrt:assert.obj
 0001:0000b5e8       ??$common_assert_to_stderr@_W@@YAXQEB_W0I@Z 000000018000c5e8 f   libucrt:assert.obj
 0001:0000b758       ?get_assert_format@@YAPEB_W_W@Z 000000018000c758 f   libucrt:assert.obj
 0001:0000bf18       ??$?RV<lambda_d80eeec6fff315bfe5c115232f3240e3>@@AEAV<lambda_6e4b09c48022b2350581041d5f6b0c4c>@@V<lambda_2358e3775559c9db80273638284d5e45>@@@?$__crt_seh_guarded_call@X@@QEAAX$$QEAV<lambda_d80eeec6fff315bfe5c115232f3240e3>@@AEAV<lambda_6e4b09c48022b2350581041d5f6b0c4c>@@$$QEAV<lambda_2358e3775559c9db80273638284d5e45>@@@Z 000000018000cf18 f   libucrt:exit.obj
 0001:0000bf50       ??R<lambda_6e4b09c48022b2350581041d5f6b0c4c>@@QEBA@XZ 000000018000cf50 f   libucrt:exit.obj
 0001:0000c014       ?atexit_exception_filter@@YAHK@Z 000000018000d014 f   libucrt:exit.obj
 0001:0000c020       ?common_exit@@YAXHW4_crt_exit_cleanup_mode@@W4_crt_exit_return_mode@@@Z 000000018000d020 f   libucrt:exit.obj
 0001:0000c0dc       ?exit_or_terminate_process@@YAXI@Z 000000018000d0dc f   libucrt:exit.obj
 0001:0000c128       ?try_cor_exit_process@@YAXI@Z 000000018000d128 f   libucrt:exit.obj
 0001:0000c1b0       ??$parse_command_line@D@@YAXPEADPEAPEAD0PEA_K2@Z 000000018000d1b0 f   libucrt:argv_parsing.obj
 0001:0000c55c       ??$common_initialize_environment_nolock@D@@YAHXZ 000000018000d55c f   libucrt:environment_initialization.obj
 0001:0000c5c8       ??$create_environment@D@@YAQEAPEADQEAD@Z 000000018000d5c8 f   libucrt:environment_initialization.obj
 0001:0000c6d0       ??$free_environment@_W@@YAXQEAPEA_W@Z 000000018000d6d0 f   libucrt:environment_initialization.obj
 0001:0000c6d0       ??$free_environment@D@@YAXQEAPEAD@Z 000000018000d6d0 f   libucrt:environment_initialization.obj
 0001:0000c714       ??$uninitialize_environment_internal@D@@YAXAEAPEAPEAD@Z 000000018000d714 f   libucrt:environment_initialization.obj
 0001:0000c730       ??$uninitialize_environment_internal@_W@@YAXAEAPEAPEA_W@Z 000000018000d730 f   libucrt:environment_initialization.obj
 0001:0000c78c       ??$?RV<lambda_7777bce6b2f8c936911f934f8298dc43>@@AEAV<lambda_f03950bc5685219e0bcd2087efbe011e>@@V<lambda_3883c3dff614d5e0c5f61bb1ac94921c>@@@?$__crt_seh_guarded_call@H@@QEAAH$$QEAV<lambda_7777bce6b2f8c936911f934f8298dc43>@@AEAV<lambda_f03950bc5685219e0bcd2087efbe011e>@@$$QEAV<lambda_3883c3dff614d5e0c5f61bb1ac94921c>@@@Z 000000018000d78c f   libucrt:onexit.obj
 0001:0000c7c8       ??R<lambda_f03950bc5685219e0bcd2087efbe011e>@@QEBAHXZ 000000018000d7c8 f   libucrt:onexit.obj
 0001:0000c944       initialize_global_variables 000000018000d944 f   libucrt:initialization.obj
 0001:0000c958       initialize_c               000000018000d958 f   libucrt:initialization.obj
 0001:0000c97c       uninitialize_c             000000018000d97c f   libucrt:initialization.obj
 0001:0000c97c       report_memory_leaks        000000018000d97c f   libucrt:initialization.obj
 0001:0000c97c       initialize_environment     000000018000d97c f   libucrt:initialization.obj
 0001:0000c97c       uninitialize_global_state_isolation 000000018000d97c f   libucrt:initialization.obj
 0001:0000c97c       initialize_global_state_isolation 000000018000d97c f   libucrt:initialization.obj
 0001:0000c980       uninitialize_environment   000000018000d980 f   libucrt:initialization.obj
 0001:0000c990       initialize_pointers        000000018000d990 f   libucrt:initialization.obj
 0001:0000c9d0       uninitialize_vcruntime     000000018000d9d0 f   libucrt:initialization.obj
 0001:0000c9d8       uninitialize_allocated_memory 000000018000d9d8 f   libucrt:initialization.obj
 0001:0000ca18       uninitialize_allocated_io_buffers 000000018000da18 f   libucrt:initialization.obj
 0001:0000d230       $$000000                   000000018000e230     libucrt:strncmp.obj
 0001:0000d44c       ??$write_buffer_nolock@D@@YA_NDV__crt_stdio_stream@@@Z 000000018000e44c f   libucrt:_flsbuf.obj
 0001:0000d530       ??$write_buffer_nolock@_W@@YA_N_WV__crt_stdio_stream@@@Z 000000018000e530 f   libucrt:_flsbuf.obj
 0001:0000d618       ?stream_is_at_end_of_file_nolock@@YA_NV__crt_stdio_stream@@@Z 000000018000e618 f   libucrt:_flsbuf.obj
 0001:0000d868       ?initialize_inherited_file_handles_nolock@@YAXXZ 000000018000e868 f   libucrt:ioinit.obj
 0001:0000d958       ?initialize_stdio_handles_nolock@@YAXXZ 000000018000e958 f   libucrt:ioinit.obj
 0001:0000db98       ?try_get_function@@YAPEAXW4function_id@?A0x391cf84c@@QEBDQEBW4module_id@2@2@Z 000000018000eb98 f   libucrt:winapi_thunks.obj
 0001:0000e4a8       ??$?RV<lambda_842d9ff0dc9ef11c61343bbaebe7f885>@@AEAV<lambda_c5860995281e5c4ce005b3de8f5874ee>@@V<lambda_d90129c13df834fdcbf8d2b88dafcf2d>@@@?$__crt_seh_guarded_call@X@@QEAAX$$QEAV<lambda_842d9ff0dc9ef11c61343bbaebe7f885>@@AEAV<lambda_c5860995281e5c4ce005b3de8f5874ee>@@$$QEAV<lambda_d90129c13df834fdcbf8d2b88dafcf2d>@@@Z 000000018000f4a8 f   libucrt:fflush.obj
 0001:0000e544       ??$?RV<lambda_886d6c58226a84441f68b9f2b8217b83>@@AEAV<lambda_ab61a845afdef5b7c387490eaf3616ee>@@V<lambda_f7f22ab5edc0698d5f6905b0d3f44752>@@@?$__crt_seh_guarded_call@X@@QEAAX$$QEAV<lambda_886d6c58226a84441f68b9f2b8217b83>@@AEAV<lambda_ab61a845afdef5b7c387490eaf3616ee>@@$$QEAV<lambda_f7f22ab5edc0698d5f6905b0d3f44752>@@@Z 000000018000f544 f   libucrt:fflush.obj
 0001:0000e624       ??$?RV<lambda_c376a267cfb53b6959b3b692ec76b120>@@AEAV<lambda_9a32fed5bf61b6b509b2d3f6003082a1>@@V<lambda_572fbb9fa0ab338edf41edfd4b5fcc8d>@@@?$__crt_seh_guarded_call@H@@QEAAH$$QEAV<lambda_c376a267cfb53b6959b3b692ec76b120>@@AEAV<lambda_9a32fed5bf61b6b509b2d3f6003082a1>@@$$QEAV<lambda_572fbb9fa0ab338edf41edfd4b5fcc8d>@@@Z 000000018000f624 f   libucrt:fflush.obj
 0001:0000e664       ?common_flush_all@@YAH_N@Z 000000018000f664 f   libucrt:fflush.obj
 0001:0000e83c       ??$?RV<lambda_0ae27a3a962d80f24befdcbee591983d>@@AEAV<lambda_8d0ee55de4b1038c4002e0adecdf1839>@@V<lambda_dc504788e8f1664fe9b84e20bfb512f2>@@@?$__crt_seh_guarded_call@X@@QEAAX$$QEAV<lambda_0ae27a3a962d80f24befdcbee591983d>@@AEAV<lambda_8d0ee55de4b1038c4002e0adecdf1839>@@$$QEAV<lambda_dc504788e8f1664fe9b84e20bfb512f2>@@@Z 000000018000f83c f   libucrt:per_thread_data.obj
 0001:0000e87c       ??$?RV<lambda_2d41944a1d46af3157314b8a01080d33>@@AEAV<lambda_8f455de75cd7d7f24b4096f044d8b9e6>@@V<lambda_aa500f224e6afead328df44964fe2772>@@@?$__crt_seh_guarded_call@X@@QEAAX$$QEAV<lambda_2d41944a1d46af3157314b8a01080d33>@@AEAV<lambda_8f455de75cd7d7f24b4096f044d8b9e6>@@$$QEAV<lambda_aa500f224e6afead328df44964fe2772>@@@Z 000000018000f87c f   libucrt:per_thread_data.obj
 0001:0000e8bc       ??$?RV<lambda_aa87e3671a710a21b5dc78c0bdf72e11>@@AEAV<lambda_92619d2358a28f41a33ba319515a20b9>@@V<lambda_6992ecaafeb10aed2b74cb1fae11a551>@@@?$__crt_seh_guarded_call@X@@QEAAX$$QEAV<lambda_aa87e3671a710a21b5dc78c0bdf72e11>@@AEAV<lambda_92619d2358a28f41a33ba319515a20b9>@@$$QEAV<lambda_6992ecaafeb10aed2b74cb1fae11a551>@@@Z 000000018000f8bc f   libucrt:per_thread_data.obj
 0001:0000e904       ??$?RV<lambda_f2e299630e499de9f9a165e60fcd3db5>@@AEAV<lambda_2ae9d31cdba2644fcbeaf08da7c24588>@@V<lambda_40d01ff24d0e7b3814fdbdcee8eab3c7>@@@?$__crt_seh_guarded_call@X@@QEAAX$$QEAV<lambda_f2e299630e499de9f9a165e60fcd3db5>@@AEAV<lambda_2ae9d31cdba2644fcbeaf08da7c24588>@@$$QEAV<lambda_40d01ff24d0e7b3814fdbdcee8eab3c7>@@@Z 000000018000f904 f   libucrt:per_thread_data.obj
 0001:0000e964       ?construct_ptd_array@@YAXQEAU__acrt_ptd@@@Z 000000018000f964 f   libucrt:per_thread_data.obj
 0001:0000ea34       ?destroy_fls@@YAXPEAX@Z    000000018000fa34 f   libucrt:per_thread_data.obj
 0001:0000ea54       ?destroy_ptd_array@@YAXQEAU__acrt_ptd@@@Z 000000018000fa54 f   libucrt:per_thread_data.obj
 0001:0000eb4c       ?replace_current_thread_locale_nolock@@YAXQEAU__acrt_ptd@@QEAU__crt_locale_data@@@Z 000000018000fb4c f   libucrt:per_thread_data.obj
 0001:0000ef34       ?internal_isupper_l@@YA_NHQEAU__crt_locale_pointers@@@Z 000000018000ff34 f   libucrt:tolower_toupper.obj
 0001:0000f704       ?fp_format_a@@YAHQEBNPEAD_KQEAD2H_NIQEAU__crt_locale_pointers@@@Z 0000000180010704 f   libucrt:cvt.obj
 0001:0000fa74       ?fp_format_e@@YAHQEBNQEAD_K12H_NIQEAU__crt_locale_pointers@@@Z 0000000180010a74 f   libucrt:cvt.obj
 0001:0000fb50       ?fp_format_e_internal@@YAHQEAD_KH_NIQEAU_strflt@@2QEAU__crt_locale_pointers@@@Z 0000000180010b50 f   libucrt:cvt.obj
 0001:0000fd24       ?fp_format_f_internal@@YAHQEAD_KHQEAU_strflt@@_NQEAU__crt_locale_pointers@@@Z 0000000180010d24 f   libucrt:cvt.obj
 0001:0000fe68       ?fp_format_g@@YAHQEBNQEAD_K12H_NIQEAU__crt_locale_pointers@@@Z 0000000180010e68 f   libucrt:cvt.obj
 0001:0000ff9c       ?fp_format_nan_or_infinity@@YAHW4__acrt_fp_class@@_NPEAD_K1@Z 0000000180010f9c f   libucrt:cvt.obj
 0001:00010600       ??$?RV<lambda_410d79af7f07d98d83a3f525b3859a53>@@AEAV<lambda_3e16ef9562a7dcce91392c22ab16ea36>@@V<lambda_38119f0e861e05405d8a144b9b982f0a>@@@?$__crt_seh_guarded_call@X@@QEAAX$$QEAV<lambda_410d79af7f07d98d83a3f525b3859a53>@@AEAV<lambda_3e16ef9562a7dcce91392c22ab16ea36>@@$$QEAV<lambda_38119f0e861e05405d8a144b9b982f0a>@@@Z 0000000180011600 f   libucrt:wsetlocale.obj
 0001:000106b4       ??$common_xtox@K_W@@YAHKQEA_W_KI_N@Z 00000001800116b4 f   libucrt:xtoa.obj
 0001:00010788       ??$common_xtox_s@K_W@@YAHKQEA_W_KI_N@Z 0000000180011788 f   libucrt:xtoa.obj
 0001:00010d14       ??$?RV<lambda_84ec643ea9557e2f7dc01bb0e9624395>@@AEAV<lambda_ca71763b3c0644891230e4f79ea54fa6>@@V<lambda_439a761618c59b0600e24586724d733b>@@@?$__crt_seh_guarded_call@H@@QEAAH$$QEAV<lambda_84ec643ea9557e2f7dc01bb0e9624395>@@AEAV<lambda_ca71763b3c0644891230e4f79ea54fa6>@@$$QEAV<lambda_439a761618c59b0600e24586724d733b>@@@Z 0000000180011d14 f   libucrt:setvbuf.obj
 0001:00010d54       ??R<lambda_ca71763b3c0644891230e4f79ea54fa6>@@QEBAHXZ 0000000180011d54 f   libucrt:setvbuf.obj
 0001:00010ed0       ??$?RV<lambda_450d765d439847d4c735a33c368b5fc0>@@AEAV<lambda_44731a7d0e6d81c3e6aa82d741081786>@@V<lambda_601a2a7da3b7a96e9554ac7215c4b07c>@@@?$__crt_seh_guarded_call@P6AXH@Z@@QEAAP6AXH@Z$$QEAV<lambda_450d765d439847d4c735a33c368b5fc0>@@AEAV<lambda_44731a7d0e6d81c3e6aa82d741081786>@@$$QEAV<lambda_601a2a7da3b7a96e9554ac7215c4b07c>@@@Z 0000000180011ed0 f   libucrt:signal.obj
 0001:00011388       ?<lambda_invoker_cdecl>@<lambda_c2303d2482d7c3675ea2e24c4cfb6115>@@CAHPEBX0@Z 0000000180012388 f   libucrt:argv_wildcards.obj
 0001:000116a0       ??$common_expand_argv_wildcards@D@@YAHQEAPEADQEAPEAPEAD@Z 00000001800126a0 f   libucrt:argv_wildcards.obj
 0001:000118ac       ??$copy_and_add_argument_to_buffer@D@@YAHQEBD0_KAEAV?$argument_list@D@?A0x5f5c8891@@@Z 00000001800128ac f   libucrt:argv_wildcards.obj
 0001:00011a34       ??$expand_argument_wildcards@D@@YAHQEAD0AEAV?$argument_list@D@?A0x5f5c8891@@@Z 0000000180012a34 f   libucrt:argv_wildcards.obj
 0001:00011d4c       ??$?RV<lambda_efdfa57d1f175319df784efa44bb7b81>@@AEAV<lambda_5f0a4c1567f8adc6734073e5d1e1b35c>@@V<lambda_2e8a7d3640ea6ccb4c2413664c2db6fd>@@@?$__crt_seh_guarded_call@X@@QEAAX$$QEAV<lambda_efdfa57d1f175319df784efa44bb7b81>@@AEAV<lambda_5f0a4c1567f8adc6734073e5d1e1b35c>@@$$QEAV<lambda_2e8a7d3640ea6ccb4c2413664c2db6fd>@@@Z 0000000180012d4c f   libucrt:mbctype.obj
 0001:00011f08       ?getSystemCP@@YAHH@Z       0000000180012f08 f   libucrt:mbctype.obj
 0001:00011f88       ?setSBCS@@YAXPEAU__crt_multibyte_data@@@Z 0000000180012f88 f   libucrt:mbctype.obj
 0001:00012018       ?setSBUpLow@@YAXPEAU__crt_multibyte_data@@@Z 0000000180013018 f   libucrt:mbctype.obj
 0001:000121fc       ?setmbcp_internal@@YAHH_NQEAU__acrt_ptd@@QEAPEAU__crt_multibyte_data@@@Z 00000001800131fc f   libucrt:mbctype.obj
 0001:000123c0       ?update_thread_multibyte_data_internal@@YAPEAU__crt_multibyte_data@@QEAU__acrt_ptd@@QEAPEAU1@@Z 00000001800133c0 f   libucrt:mbctype.obj
 0001:000127b0       ?x_ismbbtype_l@@YAHPEAU__crt_locale_pointers@@IHH@Z 00000001800137b0 f   libucrt:ismbbyte.obj
 0001:00013164       ?write_double_translated_ansi_nolock@@YA?AUwrite_result@?A0x17268360@@HQEBDI@Z 0000000180014164 f   libucrt:write.obj
 0001:00013640       ?write_text_ansi_nolock@@YA?AUwrite_result@?A0x17268360@@HQEBDI@Z 0000000180014640 f   libucrt:write.obj
 0001:00013744       ?write_text_utf16le_nolock@@YA?AUwrite_result@?A0x17268360@@HQEBDI@Z 0000000180014744 f   libucrt:write.obj
 0001:00013860       ?write_text_utf8_nolock@@YA?AUwrite_result@?A0x17268360@@HQEBDI@Z 0000000180014860 f   libucrt:write.obj
 0001:00013d98       ??$common_lseek@_J@@YA_JH_JH@Z 0000000180014d98 f   libucrt:lseek.obj
 0001:00013e88       ??$common_lseek_nolock@_J@@YA_JH_JH@Z 0000000180014e88 f   libucrt:lseek.obj
 0001:00013fa4       ?GetTableIndexFromLocaleName@@YAHPEB_W@Z 0000000180014fa4 f   libucrt:lcidtoname_downlevel.obj
 0001:000141a8       ??$?RV<lambda_a37b2b86f63e897a80ea819b0eb08c01>@@AEAV<lambda_38ce7e780aa69e748d6df282ebc68efe>@@V<lambda_99fb1378e971ab6e7edea83e3a7a83a2>@@@?$__crt_seh_guarded_call@H@@QEAAH$$QEAV<lambda_a37b2b86f63e897a80ea819b0eb08c01>@@AEAV<lambda_38ce7e780aa69e748d6df282ebc68efe>@@$$QEAV<lambda_99fb1378e971ab6e7edea83e3a7a83a2>@@@Z 00000001800151a8 f   libucrt:commit.obj
 0001:00014720       ?__acrt_LCMapStringA_stat@@YAHPEAU__crt_locale_pointers@@PEB_WKPEBDHPEADHHH@Z 0000000180015720 f   libucrt:lcmapstringa.obj
 0001:00016480       memcpy_s                   0000000180017480 f   libucrt:cfout.obj
 0001:00016680       ?free_crt_array_internal@@YAXQEAPEBX_K@Z 0000000180017680 f   libucrt:inittime.obj
 0001:00016e04       fallbackMethod             0000000180017e04 f   libucrt:strpbrk.obj
 0001:000171d4       $LN78                      00000001800181d4     libucrt:strpbrk.obj
 0001:00017210       $LN77                      0000000180018210     libucrt:strpbrk.obj
 0001:00017250       $LN76                      0000000180018250     libucrt:strpbrk.obj
 0001:0001732c       ?initialize_multibyte@@YAHXZ 000000018001832c f   libucrt:multibyte_initializer.obj
 0001:00017440       ??$?RV<lambda_751a882b2c74d4b022dec766aa51a29a>@@AEAV<lambda_628dfdc04ba53c8bfc02c9951375f3f5>@@V<lambda_f6c7be5f7998530c34de24c7437d6b54>@@@?$__crt_seh_guarded_call@H@@QEAAH$$QEAV<lambda_751a882b2c74d4b022dec766aa51a29a>@@AEAV<lambda_628dfdc04ba53c8bfc02c9951375f3f5>@@$$QEAV<lambda_f6c7be5f7998530c34de24c7437d6b54>@@@Z 0000000180018440 f   libucrt:close.obj
 0001:000179b0       $$000000                   00000001800189b0     libucrt:log10.obj
 0001:00018410       _call_matherr              0000000180019410 f   libucrt:libm_error.obj
 0001:00018478       _exception_enabled         0000000180019478 f   libucrt:libm_error.obj
 0001:00018850       _log_special_common        0000000180019850 f   libucrt:log_special.obj
 0001:000188f0       $$000000                   00000001800198f0     libucrt:fpsr.obj
 0001:00019570       $$000000                   000000018001a570     LIBCMT:chkstk.obj
 0001:00019720       $$000000                   000000018001a720     libvcruntime:memcmp.obj
 0001:00019a50       $$000000                   000000018001aa50     libucrt:cosf.obj
 0001:00019fd0       $$000000                   000000018001afd0     libucrt:sinf.obj
 0001:0001a780       $$000000                   000000018001b780     libucrt:remainder_piby2f_forasm.obj
 0001:0001a8d0       $$000000                   000000018001b8d0     libucrt:remainder_piby2_forfma3.obj
 0001:0001ab4c       _sincosf_special           000000018001bb4c f   libucrt:sincos_special.obj
 0001:0001abf0       $$000000                   000000018001bbf0     libucrt:remainder_piby2f_forc.obj
 0001:0001ad80       $$000000                   000000018001bd80     LIBCMT:guard_dispatch.obj
 0001:0001ada0       ?fin$0@?0??dllmain_crt_process_attach@@YAHQEAUHINSTANCE__@@QEAX@Z@4HA 000000018001bda0 f   LIBCMT:dll_dllmain.obj
 0001:0001adb7       ?fin$0@?0??dllmain_crt_process_detach@@YAH_N@Z@4HA 000000018001bdb7 f   LIBCMT:dll_dllmain.obj
 0001:0001add3       ?filt$0@?0??dllmain_dispatch@@YAHQEAUHINSTANCE__@@KQEAX@Z@4HA 000000018001bdd3 f   LIBCMT:dll_dllmain.obj
 0001:0001ae09       __scrt_is_nonwritable_in_current_image$filt$0 000000018001be09 f   LIBCMT:utility.obj
 0001:0001ae21       __DestructExceptionObject$filt$0 000000018001be21 f   libvcruntime:ehhelpers.obj
 0001:0001ae39       ?fin$0@?0???$?RV<lambda_0d412022a4b28cc8a401ea49574e8ae6>@@AEAV<lambda_a775ed57af18ba8e4d5dc780aa9068fe>@@V<lambda_975a71a6baa488a08f4e15f6b0339b9e>@@@?$__crt_seh_guarded_call@H@@QEAAH$$QEAV<lambda_0d412022a4b28cc8a401ea49574e8ae6>@@AEAV<lambda_a775ed57af18ba8e4d5dc780aa9068fe>@@$$QEAV<lambda_975a71a6baa488a08f4e15f6b0339b9e>@@@Z@4HA 000000018001be39 f   libucrt:output.obj
 0001:0001ae39       ?fin$0@?0???$?RV<lambda_c376a267cfb53b6959b3b692ec76b120>@@AEAV<lambda_9a32fed5bf61b6b509b2d3f6003082a1>@@V<lambda_572fbb9fa0ab338edf41edfd4b5fcc8d>@@@?$__crt_seh_guarded_call@H@@QEAAH$$QEAV<lambda_c376a267cfb53b6959b3b692ec76b120>@@AEAV<lambda_9a32fed5bf61b6b509b2d3f6003082a1>@@$$QEAV<lambda_572fbb9fa0ab338edf41edfd4b5fcc8d>@@@Z@4HA 000000018001be39 f   libucrt:fflush.obj
 0001:0001ae39       ?fin$0@?0???$?RV<lambda_842d9ff0dc9ef11c61343bbaebe7f885>@@AEAV<lambda_c5860995281e5c4ce005b3de8f5874ee>@@V<lambda_d90129c13df834fdcbf8d2b88dafcf2d>@@@?$__crt_seh_guarded_call@X@@QEAAX$$QEAV<lambda_842d9ff0dc9ef11c61343bbaebe7f885>@@AEAV<lambda_c5860995281e5c4ce005b3de8f5874ee>@@$$QEAV<lambda_d90129c13df834fdcbf8d2b88dafcf2d>@@@Z@4HA 000000018001be39 f   libucrt:fflush.obj
 0001:0001ae39       ?fin$0@?0???$?RV<lambda_84ec643ea9557e2f7dc01bb0e9624395>@@AEAV<lambda_ca71763b3c0644891230e4f79ea54fa6>@@V<lambda_439a761618c59b0600e24586724d733b>@@@?$__crt_seh_guarded_call@H@@QEAAH$$QEAV<lambda_84ec643ea9557e2f7dc01bb0e9624395>@@AEAV<lambda_ca71763b3c0644891230e4f79ea54fa6>@@$$QEAV<lambda_439a761618c59b0600e24586724d733b>@@@Z@4HA 000000018001be39 f   libucrt:setvbuf.obj
 0001:0001ae54       _query_new_handler$fin$0   000000018001be54 f   libucrt:new_handler.obj
 0001:0001ae6a       ?fin$0@?0???$?RV<lambda_d80eeec6fff315bfe5c115232f3240e3>@@AEAV<lambda_6e4b09c48022b2350581041d5f6b0c4c>@@V<lambda_2358e3775559c9db80273638284d5e45>@@@?$__crt_seh_guarded_call@X@@QEAAX$$QEAV<lambda_d80eeec6fff315bfe5c115232f3240e3>@@AEAV<lambda_6e4b09c48022b2350581041d5f6b0c4c>@@$$QEAV<lambda_2358e3775559c9db80273638284d5e45>@@@Z@4HA 000000018001be6a f   libucrt:exit.obj
 0001:0001ae6a       ?fin$0@?0???$?RV<lambda_7777bce6b2f8c936911f934f8298dc43>@@AEAV<lambda_f03950bc5685219e0bcd2087efbe011e>@@V<lambda_3883c3dff614d5e0c5f61bb1ac94921c>@@@?$__crt_seh_guarded_call@H@@QEAAH$$QEAV<lambda_7777bce6b2f8c936911f934f8298dc43>@@AEAV<lambda_f03950bc5685219e0bcd2087efbe011e>@@$$QEAV<lambda_3883c3dff614d5e0c5f61bb1ac94921c>@@@Z@4HA 000000018001be6a f   libucrt:onexit.obj
 0001:0001ae6a       ?fin$0@?0???$?RV<lambda_efdfa57d1f175319df784efa44bb7b81>@@AEAV<lambda_5f0a4c1567f8adc6734073e5d1e1b35c>@@V<lambda_2e8a7d3640ea6ccb4c2413664c2db6fd>@@@?$__crt_seh_guarded_call@X@@QEAAX$$QEAV<lambda_efdfa57d1f175319df784efa44bb7b81>@@AEAV<lambda_5f0a4c1567f8adc6734073e5d1e1b35c>@@$$QEAV<lambda_2e8a7d3640ea6ccb4c2413664c2db6fd>@@@Z@4HA 000000018001be6a f   libucrt:mbctype.obj
 0001:0001ae6a       ?fin$0@?0???$?RV<lambda_0ae27a3a962d80f24befdcbee591983d>@@AEAV<lambda_8d0ee55de4b1038c4002e0adecdf1839>@@V<lambda_dc504788e8f1664fe9b84e20bfb512f2>@@@?$__crt_seh_guarded_call@X@@QEAAX$$QEAV<lambda_0ae27a3a962d80f24befdcbee591983d>@@AEAV<lambda_8d0ee55de4b1038c4002e0adecdf1839>@@$$QEAV<lambda_dc504788e8f1664fe9b84e20bfb512f2>@@@Z@4HA 000000018001be6a f   libucrt:per_thread_data.obj
 0001:0001ae6a       ?fin$0@?0???$?RV<lambda_2d41944a1d46af3157314b8a01080d33>@@AEAV<lambda_8f455de75cd7d7f24b4096f044d8b9e6>@@V<lambda_aa500f224e6afead328df44964fe2772>@@@?$__crt_seh_guarded_call@X@@QEAAX$$QEAV<lambda_2d41944a1d46af3157314b8a01080d33>@@AEAV<lambda_8f455de75cd7d7f24b4096f044d8b9e6>@@$$QEAV<lambda_aa500f224e6afead328df44964fe2772>@@@Z@4HA 000000018001be6a f   libucrt:per_thread_data.obj
 0001:0001ae6a       ?fin$0@?0???$?RV<lambda_aa87e3671a710a21b5dc78c0bdf72e11>@@AEAV<lambda_92619d2358a28f41a33ba319515a20b9>@@V<lambda_6992ecaafeb10aed2b74cb1fae11a551>@@@?$__crt_seh_guarded_call@X@@QEAAX$$QEAV<lambda_aa87e3671a710a21b5dc78c0bdf72e11>@@AEAV<lambda_92619d2358a28f41a33ba319515a20b9>@@$$QEAV<lambda_6992ecaafeb10aed2b74cb1fae11a551>@@@Z@4HA 000000018001be6a f   libucrt:per_thread_data.obj
 0001:0001ae6a       ?fin$0@?0???$?RV<lambda_f2e299630e499de9f9a165e60fcd3db5>@@AEAV<lambda_2ae9d31cdba2644fcbeaf08da7c24588>@@V<lambda_40d01ff24d0e7b3814fdbdcee8eab3c7>@@@?$__crt_seh_guarded_call@X@@QEAAX$$QEAV<lambda_f2e299630e499de9f9a165e60fcd3db5>@@AEAV<lambda_2ae9d31cdba2644fcbeaf08da7c24588>@@$$QEAV<lambda_40d01ff24d0e7b3814fdbdcee8eab3c7>@@@Z@4HA 000000018001be6a f   libucrt:per_thread_data.obj
 0001:0001ae6a       ?fin$0@?0???$?RV<lambda_450d765d439847d4c735a33c368b5fc0>@@AEAV<lambda_44731a7d0e6d81c3e6aa82d741081786>@@V<lambda_601a2a7da3b7a96e9554ac7215c4b07c>@@@?$__crt_seh_guarded_call@P6AXH@Z@@QEAAP6AXH@Z$$QEAV<lambda_450d765d439847d4c735a33c368b5fc0>@@AEAV<lambda_44731a7d0e6d81c3e6aa82d741081786>@@$$QEAV<lambda_601a2a7da3b7a96e9554ac7215c4b07c>@@@Z@4HA 000000018001be6a f   libucrt:signal.obj
 0001:0001ae84       ?filt$0@?0???R<lambda_6e4b09c48022b2350581041d5f6b0c4c>@@QEBA@XZ@4HA 000000018001be84 f   libucrt:exit.obj
 0001:0001ae9f       __acrt_initialize_lowio$fin$0 000000018001be9f f   libucrt:ioinit.obj
 0001:0001ae9f       __acrt_lowio_ensure_fh_exists$fin$0 000000018001be9f f   libucrt:osfinfo.obj
 0001:0001aeb8       _fcloseall$fin$0           000000018001beb8 f   libucrt:closeall.obj
 0001:0001aed1       ?fin$0@?0???$?RV<lambda_886d6c58226a84441f68b9f2b8217b83>@@AEAV<lambda_ab61a845afdef5b7c387490eaf3616ee>@@V<lambda_f7f22ab5edc0698d5f6905b0d3f44752>@@@?$__crt_seh_guarded_call@X@@QEAAX$$QEAV<lambda_886d6c58226a84441f68b9f2b8217b83>@@AEAV<lambda_ab61a845afdef5b7c387490eaf3616ee>@@$$QEAV<lambda_f7f22ab5edc0698d5f6905b0d3f44752>@@@Z@4HA 000000018001bed1 f   libucrt:fflush.obj
 0001:0001aeee       ?fin$0@?0???$?RV<lambda_410d79af7f07d98d83a3f525b3859a53>@@AEAV<lambda_3e16ef9562a7dcce91392c22ab16ea36>@@V<lambda_38119f0e861e05405d8a144b9b982f0a>@@@?$__crt_seh_guarded_call@X@@QEAAX$$QEAV<lambda_410d79af7f07d98d83a3f525b3859a53>@@AEAV<lambda_3e16ef9562a7dcce91392c22ab16ea36>@@$$QEAV<lambda_38119f0e861e05405d8a144b9b982f0a>@@@Z@4HA 000000018001beee f   libucrt:wsetlocale.obj
 0001:0001af08       raise$fin$0                000000018001bf08 f   libucrt:signal.obj
 0001:0001af29       ?fin$0@?0??update_thread_multibyte_data_internal@@YAPEAU__crt_multibyte_data@@QEAU__acrt_ptd@@QEAPEAU1@@Z@4HA 000000018001bf29 f   libucrt:mbctype.obj
 0001:0001af42       _write$fin$0               000000018001bf42 f   libucrt:write.obj
 0001:0001af42       ?fin$0@?0???$common_lseek@_J@@YA_JH_JH@Z@4HA 000000018001bf42 f   libucrt:lseek.obj
 0001:0001af59       fclose$fin$0               000000018001bf59 f   libucrt:fclose.obj
 0001:0001af71       ?fin$0@?0???$?RV<lambda_a37b2b86f63e897a80ea819b0eb08c01>@@AEAV<lambda_38ce7e780aa69e748d6df282ebc68efe>@@V<lambda_99fb1378e971ab6e7edea83e3a7a83a2>@@@?$__crt_seh_guarded_call@H@@QEAAH$$QEAV<lambda_a37b2b86f63e897a80ea819b0eb08c01>@@AEAV<lambda_38ce7e780aa69e748d6df282ebc68efe>@@$$QEAV<lambda_99fb1378e971ab6e7edea83e3a7a83a2>@@@Z@4HA 000000018001bf71 f   libucrt:commit.obj
 0001:0001af71       ?fin$0@?0???$?RV<lambda_751a882b2c74d4b022dec766aa51a29a>@@AEAV<lambda_628dfdc04ba53c8bfc02c9951375f3f5>@@V<lambda_f6c7be5f7998530c34de24c7437d6b54>@@@?$__crt_seh_guarded_call@H@@QEAAH$$QEAV<lambda_751a882b2c74d4b022dec766aa51a29a>@@AEAV<lambda_628dfdc04ba53c8bfc02c9951375f3f5>@@$$QEAV<lambda_f6c7be5f7998530c34de24c7437d6b54>@@@Z@4HA 000000018001bf71 f   libucrt:close.obj
 0001:0001af8b       __acrt_update_thread_locale_data$fin$0 000000018001bf8b f   libucrt:locale_refcounting.obj
 0001:0001afa4       _ctrlfp$filt$0             000000018001bfa4 f   libucrt:fpctrl.obj
 0001:0001afd0       _IsNonwritableInCurrentImage$filt$0 000000018001bfd0 f   LIBCMT:pesect.obj
 0002:00000270       ?WorldMatrixInverse$initializer$@@3P6AXXZEA 000000018001c270     node_module.obj
 0002:00000278       ?world_dim$initializer$@@3P6AXXZEA 000000018001c278     node_module.obj
 0002:00000280       ?WorldMatrix$initializer$@@3P6AXXZEA 000000018001c280     node_module.obj
 0002:00000288       ?shared$initializer$@@3P6AXXZEA 000000018001c288     node_module.obj
 0002:00000290       ?world_scale$initializer$@@3P6AXXZEA 000000018001c290     node_module.obj
 0002:00000298       ?world_max$initializer$@@3P6AXXZEA 000000018001c298     node_module.obj
 0002:000002a0       ?world_min$initializer$@@3P6AXXZEA 000000018001c2a0     node_module.obj
 0002:000003d0       GS_ExceptionPointers       000000018001c3d0     LIBCMT:gs_report.obj
 0002:00000410       ?ExceptionTemplate@?1??_CxxThrowException@@9@4UEHExceptionRecord@@B 000000018001c410     libvcruntime:throw.obj
 0002:00000460       ?tokenTable@@3QBQEBDB      000000018001c460     libvcruntime:undname.obj
 0002:000004e0       ?nameTable@@3QBQEBDB       000000018001c4e0     libvcruntime:undname.obj
 0002:00000770       ?rttiTable@@3QBQEBDB       000000018001c770     libvcruntime:undname.obj
 0002:00000e28       ?module_names@?A0xbfd18cd1@@3QBQEB_WB 000000018001ce28     libvcruntime:winapi_downlevel.obj
 0002:00000ef8       ?candidate_modules@?1??try_get_FlsAlloc@@YAP6AKP6AXPEAX@Z@ZXZ@4QBW4module_id@?A0xbfd18cd1@@B 000000018001cef8     libvcruntime:winapi_downlevel.obj
 0002:00000f10       ?candidate_modules@?1??try_get_FlsFree@@YAP6AHK@ZXZ@4QBW4module_id@?A0xbfd18cd1@@B 000000018001cf10     libvcruntime:winapi_downlevel.obj
 0002:00000f20       ?candidate_modules@?1??try_get_FlsGetValue@@YAP6APEAXK@ZXZ@4QBW4module_id@?A0xbfd18cd1@@B 000000018001cf20     libvcruntime:winapi_downlevel.obj
 0002:00000f38       ?candidate_modules@?1??try_get_FlsSetValue@@YAP6AHKPEAX@ZXZ@4QBW4module_id@?A0xbfd18cd1@@B 000000018001cf38     libvcruntime:winapi_downlevel.obj
 0002:00000f50       ?candidate_modules@?1??try_get_InitializeCriticalSectionEx@@YAP6AHPEAU_RTL_CRITICAL_SECTION@@KK@ZXZ@4QBW4module_id@?A0xbfd18cd1@@B 000000018001cf50     libvcruntime:winapi_downlevel.obj
 0002:000013e0       __acrt_initializers        000000018001d3e0     libucrt:initialization.obj
 0002:000014e0       ?errtable@@3QBUerrentry@?A0x31fdb9ec@@B 000000018001d4e0     libucrt:errno.obj
 0002:00001650       ?module_names@?A0x391cf84c@@3QBQEB_WB 000000018001d650     libucrt:winapi_thunks.obj
 0002:00001bf8       ?candidate_modules@?1??try_get_AreFileApisANSI@@YAP6AHXZXZ@4QBW4module_id@?A0x391cf84c@@B 000000018001dbf8     libucrt:winapi_thunks.obj
 0002:00001c10       ?candidate_modules@?1??try_get_FlsAlloc@@YAP6AKP6AXPEAX@Z@ZXZ@4QBW4module_id@?A0x391cf84c@@B 000000018001dc10     libucrt:winapi_thunks.obj
 0002:00001c28       ?candidate_modules@?1??try_get_FlsFree@@YAP6AHK@ZXZ@4QBW4module_id@?A0x391cf84c@@B 000000018001dc28     libucrt:winapi_thunks.obj
 0002:00001c38       ?candidate_modules@?1??try_get_FlsGetValue@@YAP6APEAXK@ZXZ@4QBW4module_id@?A0x391cf84c@@B 000000018001dc38     libucrt:winapi_thunks.obj
 0002:00001c50       ?candidate_modules@?1??try_get_FlsSetValue@@YAP6AHKPEAX@ZXZ@4QBW4module_id@?A0x391cf84c@@B 000000018001dc50     libucrt:winapi_thunks.obj
 0002:00001c68       ?candidate_modules@?1??try_get_GetActiveWindow@@YAP6APEAUHWND__@@XZXZ@4QBW4module_id@?A0x391cf84c@@B 000000018001dc68     libucrt:winapi_thunks.obj
 0002:00001c80       ?candidate_modules@?1??try_get_GetLastActivePopup@@YAP6APEAUHWND__@@PEAU2@@ZXZ@4QBW4module_id@?A0x391cf84c@@B 000000018001dc80     libucrt:winapi_thunks.obj
 0002:00001ca0       ?candidate_modules@?1??try_get_GetProcessWindowStation@@YAP6APEAUHWINSTA__@@XZXZ@4QBW4module_id@?A0x391cf84c@@B 000000018001dca0     libucrt:winapi_thunks.obj
 0002:00001cc0       ?candidate_modules@?1??try_get_GetUserObjectInformationW@@YAP6AHPEAXH0KPEAK@ZXZ@4QBW4module_id@?A0x391cf84c@@B 000000018001dcc0     libucrt:winapi_thunks.obj
 0002:00001ce8       ?candidate_modules@?1??try_get_InitializeCriticalSectionEx@@YAP6AHPEAU_RTL_CRITICAL_SECTION@@KK@ZXZ@4QBW4module_id@?A0x391cf84c@@B 000000018001dce8     libucrt:winapi_thunks.obj
 0002:00001d10       ?candidate_modules@?1??try_get_LCMapStringEx@@YAP6AHPEB_WK0HPEA_WHPEAU_nlsversioninfo@@PEAX_J@ZXZ@4QBW4module_id@?A0x391cf84c@@B 000000018001dd10     libucrt:winapi_thunks.obj
 0002:00001d28       ?candidate_modules@?1??try_get_LocaleNameToLCID@@YAP6AKPEB_WK@ZXZ@4QBW4module_id@?A0x391cf84c@@B 000000018001dd28     libucrt:winapi_thunks.obj
 0002:00001d48       ?candidate_modules@?1??try_get_MessageBoxA@@YAP6AHPEAUHWND__@@PEBD1I@ZXZ@4QBW4module_id@?A0x391cf84c@@B 000000018001dd48     libucrt:winapi_thunks.obj
 0002:00001d60       ?candidate_modules@?1??try_get_MessageBoxW@@YAP6AHPEAUHWND__@@PEB_W1I@ZXZ@4QBW4module_id@?A0x391cf84c@@B 000000018001dd60     libucrt:winapi_thunks.obj
 0002:00001d74       ?candidate_modules@?1??try_get_AppPolicyGetProcessTerminationMethod@@YAP6AJPEAXPEAW4AppPolicyProcessTerminationMethod@@@ZXZ@4QBW4module_id@?A0x391cf84c@@B 000000018001dd74     libucrt:winapi_thunks.obj
 0002:00001da0       ?candidate_modules@?1??try_get_AppPolicyGetShowDeveloperDiagnostic@@YAP6AJPEAXPEAW4AppPolicyShowDeveloperDiagnostic@@@ZXZ@4QBW4module_id@?A0x391cf84c@@B 000000018001dda0     libucrt:winapi_thunks.obj
 0002:00001dcc       ?candidate_modules@?1??try_get_AppPolicyGetWindowingModel@@YAP6AJPEAXPEAW4AppPolicyWindowingModel@@@ZXZ@4QBW4module_id@?A0x391cf84c@@B 000000018001ddcc     libucrt:winapi_thunks.obj
 0002:000024d0       ?_mb_locale_names@@3QBQEB_WB 000000018001e4d0     libucrt:mbctype.obj
 0002:00002d40       ?LcidToLocaleNameTable@?A0x881e4c05@@3QBULcidToLocaleName@1@B 000000018001ed40     libucrt:lcidtoname_downlevel.obj
 0002:000047a0       ?LocaleNameToIndexTable@?A0x881e4c05@@3QBULocaleNameIndex@1@B 00000001800207a0     libucrt:lcidtoname_downlevel.obj
 0002:00006a30       __real_ninf                0000000180022a30     libucrt:log10.obj
 0002:00006a40       __real_inf                 0000000180022a40     libucrt:log10.obj
 0002:00006a50       __real_neg_qnan            0000000180022a50     libucrt:log10.obj
 0002:00006a60       __real_qnanbit             0000000180022a60     libucrt:log10.obj
 0002:00006a70       __int_1023                 0000000180022a70     libucrt:log10.obj
 0002:00006a80       __mask_001                 0000000180022a80     libucrt:log10.obj
 0002:00006a90       __mask_mant                0000000180022a90     libucrt:log10.obj
 0002:00006aa0       __mask_mant_top8           0000000180022aa0     libucrt:log10.obj
 0002:00006ab0       __mask_mant9               0000000180022ab0     libucrt:log10.obj
 0002:00006ac0       __real_log10_e             0000000180022ac0     libucrt:log10.obj
 0002:00006ad0       __real_log10_e_lead        0000000180022ad0     libucrt:log10.obj
 0002:00006ae0       __real_log10_e_tail        0000000180022ae0     libucrt:log10.obj
 0002:00006af0       __real_log10_2_lead        0000000180022af0     libucrt:log10.obj
 0002:00006b00       __real_log10_2_tail        0000000180022b00     libucrt:log10.obj
 0002:00006b10       __real_two                 0000000180022b10     libucrt:log10.obj
 0002:00006b20       __real_one                 0000000180022b20     libucrt:log10.obj
 0002:00006b30       __real_half                0000000180022b30     libucrt:log10.obj
 0002:00006b40       __mask_100                 0000000180022b40     libucrt:log10.obj
 0002:00006b50       __real_1_over_512          0000000180022b50     libucrt:log10.obj
 0002:00006b60       __real_1_over_2            0000000180022b60     libucrt:log10.obj
 0002:00006b70       __real_1_over_3            0000000180022b70     libucrt:log10.obj
 0002:00006b80       __real_1_over_4            0000000180022b80     libucrt:log10.obj
 0002:00006b90       __real_1_over_5            0000000180022b90     libucrt:log10.obj
 0002:00006ba0       __real_1_over_6            0000000180022ba0     libucrt:log10.obj
 0002:00006bb0       __real_neg_1023            0000000180022bb0     libucrt:log10.obj
 0002:00006bc0       __mask_2045                0000000180022bc0     libucrt:log10.obj
 0002:00006bd0       __real_threshold           0000000180022bd0     libucrt:log10.obj
 0002:00006be0       __real_near_one_lt         0000000180022be0     libucrt:log10.obj
 0002:00006bf0       __real_near_one_gt         0000000180022bf0     libucrt:log10.obj
 0002:00006c00       __real_min_norm            0000000180022c00     libucrt:log10.obj
 0002:00006c10       __real_notsign             0000000180022c10     libucrt:log10.obj
 0002:00006c20       __real_ca1                 0000000180022c20     libucrt:log10.obj
 0002:00006c30       __real_ca2                 0000000180022c30     libucrt:log10.obj
 0002:00006c40       __real_ca3                 0000000180022c40     libucrt:log10.obj
 0002:00006c50       __real_ca4                 0000000180022c50     libucrt:log10.obj
 0002:00006c60       __mask_lower               0000000180022c60     libucrt:log10.obj
 0002:00006c70       __flag_x_zero              0000000180022c70     libucrt:log10.obj
 0002:00006c74       __flag_x_neg               0000000180022c74     libucrt:log10.obj
 0002:00006c78       __flag_x_nan               0000000180022c78     libucrt:log10.obj
 0002:000084d0       __real@433fffffffffffff    00000001800244d0     libucrt:fpsr.obj
 0002:000084d8       __real@c33fffffffffffff    00000001800244d8     libucrt:fpsr.obj
 0002:00008b70       L_real_one                 0000000180024b70     libucrt:cosf.obj
 0002:00008b80       L_one_half                 0000000180024b80     libucrt:cosf.obj
 0002:00008b90       L_2bypi                    0000000180024b90     libucrt:cosf.obj
 0002:00008ba0       L_one_sixth                0000000180024ba0     libucrt:cosf.obj
 0002:00008bb0       L_piby2                    0000000180024bb0     libucrt:cosf.obj
 0002:00008bc0       L_piby2_1                  0000000180024bc0     libucrt:cosf.obj
 0002:00008bd0       L_piby2_1tail              0000000180024bd0     libucrt:cosf.obj
 0002:00008be0       L_piby2_2                  0000000180024be0     libucrt:cosf.obj
 0002:00008bf0       L_piby2_2tail              0000000180024bf0     libucrt:cosf.obj
 0002:00008c00       L_large_x_sse2             0000000180024c00     libucrt:cosf.obj
 0002:00008c10       L_large_x_fma3             0000000180024c10     libucrt:cosf.obj
 0002:00008c20       L_sign_mask                0000000180024c20     libucrt:cosf.obj
 0002:00008c30       L__int_three               0000000180024c30     libucrt:cosf.obj
 0002:00008c40       L__min_norm_double         0000000180024c40     libucrt:cosf.obj
 0002:00008c50       L_two_to_neg_7             0000000180024c50     libucrt:cosf.obj
 0002:00008c60       L_two_to_neg_13            0000000180024c60     libucrt:cosf.obj
 0002:00008c70       L_two_to_32_float          0000000180024c70     libucrt:cosf.obj
 0002:00008c78       L_one_float                0000000180024c78     libucrt:cosf.obj
 0002:00008c80       L_inf_mask_32              0000000180024c80     libucrt:cosf.obj
 0002:00008c90       L_signbit                  0000000180024c90     libucrt:sinf.obj
 0002:00008ca0       L_sign_mask                0000000180024ca0     libucrt:sinf.obj
 0002:00008cb0       L_one                      0000000180024cb0     libucrt:sinf.obj
 0002:00008cc0       L_int_three                0000000180024cc0     libucrt:sinf.obj
 0002:00008cd0       L_one_half                 0000000180024cd0     libucrt:sinf.obj
 0002:00008ce0       L_twobypi                  0000000180024ce0     libucrt:sinf.obj
 0002:00008cf0       L_piby2_1                  0000000180024cf0     libucrt:sinf.obj
 0002:00008d00       L_one_sixth                0000000180024d00     libucrt:sinf.obj
 0002:00008d10       L_piby2_1tail              0000000180024d10     libucrt:sinf.obj
 0002:00008d20       L_piby2_2                  0000000180024d20     libucrt:sinf.obj
 0002:00008d30       L_piby2_2tail              0000000180024d30     libucrt:sinf.obj
 0002:00008d40       L_inf_mask_32              0000000180024d40     libucrt:sinf.obj
 0002:00008d50       L_int_two                  0000000180024d50     libucrt:sinf.obj
 0002:00008d60       L_piby2_lead               0000000180024d60     libucrt:sinf.obj
 0002:00008d70       L_piby4                    0000000180024d70     libucrt:sinf.obj
 0002:00008d80       L_mask_3f2                 0000000180024d80     libucrt:sinf.obj
 0002:00008d90       L_mask_3f8                 0000000180024d90     libucrt:sinf.obj
 0002:00008da0       L_large_x_fma3             0000000180024da0     libucrt:sinf.obj
 0002:00008da8       L_large_x_sse2             0000000180024da8     libucrt:sinf.obj
 0002:00008db0       L_near_one                 0000000180024db0     libucrt:sinf.obj
 0002:00008db8       L_two_to_32                0000000180024db8     libucrt:sinf.obj
 0002:00008dd0       L__piby2                   0000000180024dd0     libucrt:remainder_piby2f_forasm.obj
 0002:00008de0       L_piby2_lead               0000000180024de0     libucrt:remainder_piby2_forfma3.obj
 0002:00008df0       L_fff800                   0000000180024df0     libucrt:remainder_piby2_forfma3.obj
 0002:00008e00       L_piby2_part1              0000000180024e00     libucrt:remainder_piby2_forfma3.obj
 0002:00008e10       L_piby2_part2              0000000180024e10     libucrt:remainder_piby2_forfma3.obj
 0002:00008e20       L_piby2_part3              0000000180024e20     libucrt:remainder_piby2_forfma3.obj
 0002:00008e30       L_piby2_1                  0000000180024e30     libucrt:remainder_piby2_forfma3.obj
 0002:00008e40       L_piby2_2                  0000000180024e40     libucrt:remainder_piby2_forfma3.obj
 0002:00008e50       L_piby2_3                  0000000180024e50     libucrt:remainder_piby2_forfma3.obj
 0002:00008e60       L_piby2_1tail              0000000180024e60     libucrt:remainder_piby2_forfma3.obj
 0002:00008e70       L_piby2_2tail              0000000180024e70     libucrt:remainder_piby2_forfma3.obj
 0002:00008e80       L_piby2_3tail              0000000180024e80     libucrt:remainder_piby2_forfma3.obj
 0002:00008e90       L_sign_mask                0000000180024e90     libucrt:remainder_piby2_forfma3.obj
 0002:00008ea0       L_twobypi                  0000000180024ea0     libucrt:remainder_piby2_forfma3.obj
 0002:00008eb0       L_point_five               0000000180024eb0     libucrt:remainder_piby2_forfma3.obj
 0002:00008ec0       L_int_three                0000000180024ec0     libucrt:remainder_piby2_forfma3.obj
 0002:00008ed0       L_inf_mask_64              0000000180024ed0     libucrt:remainder_piby2_forfma3.obj
 0002:00008ee0       L_signbit                  0000000180024ee0     libucrt:remainder_piby2_forfma3.obj
 0002:00008ef0       L_r                        0000000180024ef0     libucrt:remainder_piby2_forfma3.obj
 0002:00008f00       L_xc1                      0000000180024f00     libucrt:remainder_piby2_forfma3.obj
 0002:00008f10       L_xc2                      0000000180024f10     libucrt:remainder_piby2_forfma3.obj
 0002:00008f20       L_xc3                      0000000180024f20     libucrt:remainder_piby2_forfma3.obj
 0002:00008f30       L_sigma                    0000000180024f30     libucrt:remainder_piby2_forfma3.obj
 0002:00009040       L__piby2                   0000000180025040     libucrt:remainder_piby2f_forc.obj
 0002:00009050       L__2_by_pi_bits            0000000180025050     libucrt:remainder_piby2f_forc.obj
 0002:00009838       $unwind$?turn_toward@@YA?AU?$tquat@M$0A@@glm@@U12@U?$tvec3@M$0A@@2@@Z 0000000180025838     node_module.obj
 0002:00009870       $unwind$??__EWorldMatrix@@YAXXZ 0000000180025870     node_module.obj
 0002:00009890       $unwind$?reset@Agent@@QEAAXH@Z 0000000180025890     node_module.obj
 0002:000098c4       $unwind$?init@Shared@@QEAAXXZ 00000001800258c4     node_module.obj
 0002:00009908       $unwind$?main_update@Shared@@QEAAXM@Z 0000000180025908     node_module.obj
 0002:00009918       $chain$6$?main_update@Shared@@QEAAXM@Z 0000000180025918     node_module.obj
 0002:00009944       $chain$7$?main_update@Shared@@QEAAXM@Z 0000000180025944     node_module.obj
 0002:00009954       $unwind$?simulation_update@Shared@@QEAAXN@Z 0000000180025954     node_module.obj
 0002:00009960       $chain$16$?simulation_update@Shared@@QEAAXN@Z 0000000180025960     node_module.obj
 0002:000099b4       $chain$17$?simulation_update@Shared@@QEAAXN@Z 00000001800259b4     node_module.obj
 0002:000099c4       $chain$18$?simulation_update@Shared@@QEAAXN@Z 00000001800259c4     node_module.obj
 0002:00009a18       $unwind$__vcrt_thread_detach 0000000180025a18     libvcruntime:initialization.obj
 0002:00009a18       $unwind$_set_errno_from_matherr 0000000180025a18     libucrt:fpexcept.obj
 0002:00009a18       $unwind$?state_case_size@?$output_processor@_WV?$stream_output_adapter@_W@__crt_stdio_output@@V?$standard_base@_WV?$stream_output_adapter@_W@__crt_stdio_output@@@2@@__crt_stdio_output@@AEAA_NXZ 0000000180025a18     libucrt:output.obj
 0002:00009a18       $unwind$_set_error_mode    0000000180025a18     libucrt:set_error_mode.obj
 0002:00009a18       $unwind$uninitialize_environment 0000000180025a18     libucrt:initialization.obj
 0002:00009a18       $unwind$__vcrt_uninitialize_ptd 0000000180025a18     libvcruntime:per_thread_data.obj
 0002:00009a18       $unwind$__acrt_update_thread_multibyte_data 0000000180025a18     libucrt:mbctype.obj
 0002:00009a18       $unwind$__acrt_initialize_multibyte 0000000180025a18     libucrt:mbctype.obj
 0002:00009a18       $unwind$uninitialize_allocated_io_buffers 0000000180025a18     libucrt:initialization.obj
 0002:00009a18       $unwind$__vcrt_initialize_ptd 0000000180025a18     libvcruntime:per_thread_data.obj
 0002:00009a18       $unwind$tolower            0000000180025a18     libucrt:tolower_toupper.obj
 0002:00009a18       $unwind$abort              0000000180025a18     libucrt:abort.obj
 0002:00009a18       $unwind$__acrt_thread_attach 0000000180025a18     libucrt:initialization.obj
 0002:00009a18       $unwind$__acrt_initialize_command_line 0000000180025a18     libucrt:argv_data.obj
 0002:00009a18       $unwind$__scrt_dllmain_crt_thread_detach 0000000180025a18     LIBCMT:utility.obj
 0002:00009a18       $unwind$__scrt_dllmain_crt_thread_attach 0000000180025a18     LIBCMT:utility.obj
 0002:00009a18       $unwind$__acrt_initialize_heap 0000000180025a18     libucrt:heap_handle.obj
 0002:00009a18       $unwind$__vcrt_thread_attach 0000000180025a18     libvcruntime:initialization.obj
 0002:00009a18       $unwind$__dcrt_uninitialize_environments_nolock 0000000180025a18     libucrt:environment_initialization.obj
 0002:00009a18       $unwind$_errno             0000000180025a18     libucrt:errno.obj
 0002:00009a18       $unwind$__scrt_dllmain_uninitialize_c 0000000180025a18     LIBCMT:utility.obj
 0002:00009a18       $unwind$__pctype_func      0000000180025a18     libucrt:ctype.obj
 0002:00009a18       $unwind$__scrt_dllmain_after_initialize_c 0000000180025a18     LIBCMT:utility.obj
 0002:00009a18       $unwind$__acrt_initialize_ptd 0000000180025a18     libucrt:per_thread_data.obj
 0002:00009a18       $unwind$__acrt_uninitialize_ptd 0000000180025a18     libucrt:per_thread_data.obj
 0002:00009a18       $unwind$_msize_base        0000000180025a18     libucrt:msize.obj
 0002:00009a18       $unwind$__scrt_dllmain_before_initialize_c 0000000180025a18     LIBCMT:utility.obj
 0002:00009a18       $unwind$?initialize_multibyte@@YAHXZ 0000000180025a18     libucrt:multibyte_initializer.obj
 0002:00009a18       $unwind$__doserrno         0000000180025a18     libucrt:errno.obj
 0002:00009a18       $unwind$?dllmain_crt_dispatch@@YAHQEAUHINSTANCE__@@KQEAX@Z 0000000180025a18     LIBCMT:dll_dllmain.obj
 0002:00009a18       $unwind$_isatty            0000000180025a18     libucrt:isatty.obj
 0002:00009a18       $unwind$?node_init@@YAPEAUnapi_value__@@PEAUnapi_env__@@PEAUnapi_callback_info__@@@Z 0000000180025a18     node_module.obj
 0002:00009a18       $unwind$_invoke_watson     0000000180025a18     libucrt:invalid_parameter.obj
 0002:00009a18       $unwind$_stricmp           0000000180025a18     libucrt:stricmp.obj
 0002:00009a18       $unwind$_fileno            0000000180025a18     libucrt:fileno.obj
 0002:00009a18       $unwind$__dcrt_terminate_console_output 0000000180025a18     libucrt:initcon.obj
 0002:00009a18       $unwind$__GSHandlerCheck   0000000180025a18     LIBCMT:gshandler.obj
 0002:00009a18       $unwind$??$uninitialize_environment_internal@D@@YAXAEAPEAPEAD@Z 0000000180025a18     libucrt:environment_initialization.obj
 0002:00009a18       $unwind$__vcrt_uninitialize_critical 0000000180025a18     libvcruntime:initialization.obj
 0002:00009a18       $unwind$__vcrt_uninitialize 0000000180025a18     libvcruntime:initialization.obj
 0002:00009a18       $unwind$__scrt_acquire_startup_lock 0000000180025a18     LIBCMT:utility.obj
 0002:00009a18       $unwind$??$uninitialize_environment_internal@_W@@YAXAEAPEAPEA_W@Z 0000000180025a18     libucrt:environment_initialization.obj
 0002:00009a18       $unwind$rand               0000000180025a18     libucrt:rand.obj
 0002:00009a18       $unwind$__vcrt_initialize  0000000180025a18     libvcruntime:initialization.obj
 0002:00009a18       $unwind$?_Xlength@?$vector@HV?$allocator@H@std@@@std@@CAXXZ 0000000180025a18     node_module.obj
 0002:00009a18       $unwind$__acrt_uninitialize 0000000180025a18     libucrt:initialization.obj
 0002:00009a18       $unwind$__acrt_uninitialize_critical 0000000180025a18     libucrt:initialization.obj
 0002:00009a18       $unwind$__vcrt_freefls     0000000180025a18     libvcruntime:per_thread_data.obj
 0002:00009a18       $unwind$__acrt_DownlevelLocaleNameToLCID 0000000180025a18     libucrt:lcidtoname_downlevel.obj
 0002:00009a18       $unwind$__scrt_initialize_default_local_stdio_options 0000000180025a18     LIBCMT:default_local_stdio_options.obj
 0002:00009a18       $unwind$?_Xlength@?$vector@UShellData@?1??reset@?$Hashspace@$0BAAA@$04@@QEAAAEAU3@U?$tvec3@M$0A@@glm@@0@Z@V?$allocator@UShellData@?1??reset@?$Hashspace@$0BAAA@$04@@QEAAAEAU3@U?$tvec3@M$0A@@glm@@0@Z@@std@@@std@@CAXXZ 0000000180025a18     node_module.obj
 0002:00009a18       $unwind$initialize_c       0000000180025a18     libucrt:initialization.obj
 0002:00009a18       $unwind$?_Xlength@?$vector@V?$vector@UShellData@?1??reset@?$Hashspace@$0BAAA@$04@@QEAAAEAU3@U?$tvec3@M$0A@@glm@@0@Z@V?$allocator@UShellData@?1??reset@?$Hashspace@$0BAAA@$04@@QEAAAEAU3@U?$tvec3@M$0A@@glm@@0@Z@@std@@@std@@V?$allocator@V?$vector@UShellData@?1??reset@?$Hashspace@$0BAAA@$04@@QEAAAEAU3@U?$tvec3@M$0A@@glm@@0@Z@V?$allocator@UShellData@?1??reset@?$Hashspace@$0BAAA@$04@@QEAAAEAU3@U?$tvec3@M$0A@@glm@@0@Z@@std@@@std@@@2@@std@@CAXXZ 0000000180025a18     node_module.obj
 0002:00009a18       $unwind$_get_osfhandle     0000000180025a18     libucrt:osfinfo.obj
 0002:00009a18       $unwind$?DloadReleaseSectionWriteAccess@@YAXXZ 0000000180025a18     DelayImp:delayhlp.obj
 0002:00009a18       $unwind$__acrt_release_locale_ref 0000000180025a18     libucrt:locale_refcounting.obj
 0002:00009a18       $unwind$__acrt_thread_detach 0000000180025a18     libucrt:initialization.obj
 0002:00009a18       $unwind$?__c32rtomb_utf8@__crt_mbstring@@YA_KPEAD_UPEAU_Mbstatet@@@Z 0000000180025a18     libucrt:c32rtomb.obj
 0002:00009a18       $unwind$_statfp            0000000180025a18     libucrt:fpctrl.obj
 0002:00009a18       $unwind$__report_rangecheckfailure 0000000180025a18     LIBCMT:gs_report.obj
 0002:00009a18       $unwind$__scrt_dllmain_uninitialize_critical 0000000180025a18     LIBCMT:utility.obj
 0002:00009a18       $unwind$__acrt_AreFileApisANSI 0000000180025a18     libucrt:winapi_thunks.obj
 0002:00009a18       $unwind$?state_case_size@?$output_processor@_WV?$string_output_adapter@_W@__crt_stdio_output@@V?$standard_base@_WV?$string_output_adapter@_W@__crt_stdio_output@@@2@@__crt_stdio_output@@AEAA_NXZ 0000000180025a18     libucrt:output.obj
 0002:00009a20       $unwind$?node_update@@YAPEAUnapi_value__@@PEAUnapi_env__@@PEAUnapi_callback_info__@@@Z 0000000180025a20     node_module.obj
 0002:00009a28       $unwind$?Init@@YAPEAUnapi_value__@@PEAUnapi_env__@@PEAU1@@Z 0000000180025a28     node_module.obj
 0002:00009a38       $unwind$?move@?$Hashspace@$0BAAA@$04@@QEAAXIU?$tvec3@M$0A@@glm@@@Z 0000000180025a38     node_module.obj
 0002:00009a4c       $unwind$?query@?$Hashspace@$0BAAA@$04@@QEAAHAEAV?$vector@HV?$allocator@H@std@@@std@@HU?$tvec3@M$0A@@glm@@HMM@Z 0000000180025a4c     node_module.obj
 0002:00009a5c       $chain$2$?query@?$Hashspace@$0BAAA@$04@@QEAAHAEAV?$vector@HV?$allocator@H@std@@@std@@HU?$tvec3@M$0A@@glm@@HMM@Z 0000000180025a5c     node_module.obj
 0002:00009a78       $chain$6$?query@?$Hashspace@$0BAAA@$04@@QEAAHAEAV?$vector@HV?$allocator@H@std@@@std@@HU?$tvec3@M$0A@@glm@@HMM@Z 0000000180025a78     node_module.obj
 0002:00009a94       $chain$3$?query@?$Hashspace@$0BAAA@$04@@QEAAHAEAV?$vector@HV?$allocator@H@std@@@std@@HU?$tvec3@M$0A@@glm@@HMM@Z 0000000180025a94     node_module.obj
 0002:00009aa4       $unwind$?reset@?$Hashspace@$0BAAA@$04@@QEAAAEAU1@U?$tvec3@M$0A@@glm@@0@Z 0000000180025aa4     node_module.obj
 0002:00009ab8       $chain$1$?reset@?$Hashspace@$0BAAA@$04@@QEAAAEAU1@U?$tvec3@M$0A@@glm@@0@Z 0000000180025ab8     node_module.obj
 0002:00009ad0       $chain$9$?reset@?$Hashspace@$0BAAA@$04@@QEAAAEAU1@U?$tvec3@M$0A@@glm@@0@Z 0000000180025ad0     node_module.obj
 0002:00009b00       $chain$10$?reset@?$Hashspace@$0BAAA@$04@@QEAAAEAU1@U?$tvec3@M$0A@@glm@@0@Z 0000000180025b00     node_module.obj
 0002:00009b28       $chain$11$?reset@?$Hashspace@$0BAAA@$04@@QEAAAEAU1@U?$tvec3@M$0A@@glm@@0@Z 0000000180025b28     node_module.obj
 0002:00009b48       $chain$12$?reset@?$Hashspace@$0BAAA@$04@@QEAAAEAU1@U?$tvec3@M$0A@@glm@@0@Z 0000000180025b48     node_module.obj
 0002:00009b58       $unwind$?splat@?$Array3DSized@U?$tvec4@M$0A@@glm@@$0EA@$0EA@$0EA@@@QEAAAEAU1@U?$tvec4@M$0A@@glm@@U?$tvec3@M$0A@@3@@Z 0000000180025b58     node_module.obj
 0002:00009b98       $unwind$?sample@?$Array2DSized@U?$tvec3@M$0A@@glm@@$0HP@$0HP@@@QEAA?AU?$tvec3@M$0A@@glm@@U?$tvec2@M$0A@@3@@Z 0000000180025b98     node_module.obj
 0002:00009bc0       $unwind$??$?DM$0A@@glm@@YA?AU?$tmat4x4@M$0A@@0@AEBU10@0@Z 0000000180025bc0     node_module.obj
 0002:00009bf0       $unwind$??$_Resize@V<lambda_7c1f8801e9057f59bf0e89d8a2ca440c>@@@?$vector@V?$vector@UShellData@?1??reset@?$Hashspace@$0BAAA@$04@@QEAAAEAU3@U?$tvec3@M$0A@@glm@@0@Z@V?$allocator@UShellData@?1??reset@?$Hashspace@$0BAAA@$04@@QEAAAEAU3@U?$tvec3@M$0A@@glm@@0@Z@@std@@@std@@V?$allocator@V?$vector@UShellData@?1??reset@?$Hashspace@$0BAAA@$04@@QEAAAEAU3@U?$tvec3@M$0A@@glm@@0@Z@V?$allocator@UShellData@?1??reset@?$Hashspace@$0BAAA@$04@@QEAAAEAU3@U?$tvec3@M$0A@@glm@@0@Z@@std@@@std@@@2@@std@@AEAAX_KV<lambda_7c1f8801e9057f59bf0e89d8a2ca440c>@@@Z 0000000180025bf0     node_module.obj
 0002:00009c08       $chain$0$??$_Resize@V<lambda_7c1f8801e9057f59bf0e89d8a2ca440c>@@@?$vector@V?$vector@UShellData@?1??reset@?$Hashspace@$0BAAA@$04@@QEAAAEAU3@U?$tvec3@M$0A@@glm@@0@Z@V?$allocator@UShellData@?1??reset@?$Hashspace@$0BAAA@$04@@QEAAAEAU3@U?$tvec3@M$0A@@glm@@0@Z@@std@@@std@@V?$allocator@V?$vector@UShellData@?1??reset@?$Hashspace@$0BAAA@$04@@QEAAAEAU3@U?$tvec3@M$0A@@glm@@0@Z@V?$allocator@UShellData@?1??reset@?$Hashspace@$0BAAA@$04@@QEAAAEAU3@U?$tvec3@M$0A@@glm@@0@Z@@std@@@std@@@2@@std@@AEAAX_KV<lambda_7c1f8801e9057f59bf0e89d8a2ca440c>@@@Z 0000000180025c08     node_module.obj
 0002:00009c1c       $chain$1$??$_Resize@V<lambda_7c1f8801e9057f59bf0e89d8a2ca440c>@@@?$vector@V?$vector@UShellData@?1??reset@?$Hashspace@$0BAAA@$04@@QEAAAEAU3@U?$tvec3@M$0A@@glm@@0@Z@V?$allocator@UShellData@?1??reset@?$Hashspace@$0BAAA@$04@@QEAAAEAU3@U?$tvec3@M$0A@@glm@@0@Z@@std@@@std@@V?$allocator@V?$vector@UShellData@?1??reset@?$Hashspace@$0BAAA@$04@@QEAAAEAU3@U?$tvec3@M$0A@@glm@@0@Z@V?$allocator@UShellData@?1??reset@?$Hashspace@$0BAAA@$04@@QEAAAEAU3@U?$tvec3@M$0A@@glm@@0@Z@@std@@@std@@@2@@std@@AEAAX_KV<lambda_7c1f8801e9057f59bf0e89d8a2ca440c>@@@Z 0000000180025c1c     node_module.obj
 0002:00009c1c       $chain$3$??$_Resize@V<lambda_7c1f8801e9057f59bf0e89d8a2ca440c>@@@?$vector@V?$vector@UShellData@?1??reset@?$Hashspace@$0BAAA@$04@@QEAAAEAU3@U?$tvec3@M$0A@@glm@@0@Z@V?$allocator@UShellData@?1??reset@?$Hashspace@$0BAAA@$04@@QEAAAEAU3@U?$tvec3@M$0A@@glm@@0@Z@@std@@@std@@V?$allocator@V?$vector@UShellData@?1??reset@?$Hashspace@$0BAAA@$04@@QEAAAEAU3@U?$tvec3@M$0A@@glm@@0@Z@V?$allocator@UShellData@?1??reset@?$Hashspace@$0BAAA@$04@@QEAAAEAU3@U?$tvec3@M$0A@@glm@@0@Z@@std@@@std@@@2@@std@@AEAAX_KV<lambda_7c1f8801e9057f59bf0e89d8a2ca440c>@@@Z 0000000180025c1c     node_module.obj
 0002:00009c2c       $chain$2$??$_Resize@V<lambda_7c1f8801e9057f59bf0e89d8a2ca440c>@@@?$vector@V?$vector@UShellData@?1??reset@?$Hashspace@$0BAAA@$04@@QEAAAEAU3@U?$tvec3@M$0A@@glm@@0@Z@V?$allocator@UShellData@?1??reset@?$Hashspace@$0BAAA@$04@@QEAAAEAU3@U?$tvec3@M$0A@@glm@@0@Z@@std@@@std@@V?$allocator@V?$vector@UShellData@?1??reset@?$Hashspace@$0BAAA@$04@@QEAAAEAU3@U?$tvec3@M$0A@@glm@@0@Z@V?$allocator@UShellData@?1??reset@?$Hashspace@$0BAAA@$04@@QEAAAEAU3@U?$tvec3@M$0A@@glm@@0@Z@@std@@@std@@@2@@std@@AEAAX_KV<lambda_7c1f8801e9057f59bf0e89d8a2ca440c>@@@Z 0000000180025c2c     node_module.obj
 0002:00009c40       $unwind$??$_Emplace_reallocate@UShellData@?1??reset@?$Hashspace@$0BAAA@$04@@QEAAAEAU3@U?$tvec3@M$0A@@glm@@0@Z@@?$vector@UShellData@?1??reset@?$Hashspace@$0BAAA@$04@@QEAAAEAU3@U?$tvec3@M$0A@@glm@@0@Z@V?$allocator@UShellData@?1??reset@?$Hashspace@$0BAAA@$04@@QEAAAEAU3@U?$tvec3@M$0A@@glm@@0@Z@@std@@@std@@QEAAPEAUShellData@?1??reset@?$Hashspace@$0BAAA@$04@@QEAAAEAU4@U?$tvec3@M$0A@@glm@@0@Z@QEAU2?1??34@QEAAAEAU4@00@Z@$$QEAU2?1??34@QEAAAEAU4@00@Z@@Z 0000000180025c40     node_module.obj
 0002:00009c50       $chain$2$??$_Emplace_reallocate@UShellData@?1??reset@?$Hashspace@$0BAAA@$04@@QEAAAEAU3@U?$tvec3@M$0A@@glm@@0@Z@@?$vector@UShellData@?1??reset@?$Hashspace@$0BAAA@$04@@QEAAAEAU3@U?$tvec3@M$0A@@glm@@0@Z@V?$allocator@UShellData@?1??reset@?$Hashspace@$0BAAA@$04@@QEAAAEAU3@U?$tvec3@M$0A@@glm@@0@Z@@std@@@std@@QEAAPEAUShellData@?1??reset@?$Hashspace@$0BAAA@$04@@QEAAAEAU4@U?$tvec3@M$0A@@glm@@0@Z@QEAU2?1??34@QEAAAEAU4@00@Z@$$QEAU2?1??34@QEAAAEAU4@00@Z@@Z 0000000180025c50     node_module.obj
 0002:00009c6c       $chain$3$??$_Emplace_reallocate@UShellData@?1??reset@?$Hashspace@$0BAAA@$04@@QEAAAEAU3@U?$tvec3@M$0A@@glm@@0@Z@@?$vector@UShellData@?1??reset@?$Hashspace@$0BAAA@$04@@QEAAAEAU3@U?$tvec3@M$0A@@glm@@0@Z@V?$allocator@UShellData@?1??reset@?$Hashspace@$0BAAA@$04@@QEAAAEAU3@U?$tvec3@M$0A@@glm@@0@Z@@std@@@std@@QEAAPEAUShellData@?1??reset@?$Hashspace@$0BAAA@$04@@QEAAAEAU4@U?$tvec3@M$0A@@glm@@0@Z@QEAU2?1??34@QEAAAEAU4@00@Z@$$QEAU2?1??34@QEAAAEAU4@00@Z@@Z 0000000180025c6c     node_module.obj
 0002:00009c7c       $chain$4$??$_Emplace_reallocate@UShellData@?1??reset@?$Hashspace@$0BAAA@$04@@QEAAAEAU3@U?$tvec3@M$0A@@glm@@0@Z@@?$vector@UShellData@?1??reset@?$Hashspace@$0BAAA@$04@@QEAAAEAU3@U?$tvec3@M$0A@@glm@@0@Z@V?$allocator@UShellData@?1??reset@?$Hashspace@$0BAAA@$04@@QEAAAEAU3@U?$tvec3@M$0A@@glm@@0@Z@@std@@@std@@QEAAPEAUShellData@?1??reset@?$Hashspace@$0BAAA@$04@@QEAAAEAU4@U?$tvec3@M$0A@@glm@@0@Z@QEAU2?1??34@QEAAAEAU4@00@Z@$$QEAU2?1??34@QEAAAEAU4@00@Z@@Z 0000000180025c7c     node_module.obj
 0002:00009c98       $unwind$??$_Emplace_reallocate@AEBH@?$vector@HV?$allocator@H@std@@@std@@QEAAPEAHQEAHAEBH@Z 0000000180025c98     node_module.obj
 0002:00009ca8       $chain$3$??$_Emplace_reallocate@AEBH@?$vector@HV?$allocator@H@std@@@std@@QEAAPEAHQEAHAEBH@Z 0000000180025ca8     node_module.obj
 0002:00009cc8       $chain$5$??$_Emplace_reallocate@AEBH@?$vector@HV?$allocator@H@std@@@std@@QEAAPEAHQEAHAEBH@Z 0000000180025cc8     node_module.obj
 0002:00009ce8       $chain$6$??$_Emplace_reallocate@AEBH@?$vector@HV?$allocator@H@std@@@std@@QEAAPEAHQEAHAEBH@Z 0000000180025ce8     node_module.obj
 0002:00009cf8       $unwind$??$_Destroy_range@V?$allocator@V?$vector@UShellData@?1??reset@?$Hashspace@$0BAAA@$04@@QEAAAEAU3@U?$tvec3@M$0A@@glm@@0@Z@V?$allocator@UShellData@?1??reset@?$Hashspace@$0BAAA@$04@@QEAAAEAU3@U?$tvec3@M$0A@@glm@@0@Z@@std@@@std@@@std@@@std@@YAXPEAV?$vector@UShellData@?1??reset@?$Hashspace@$0BAAA@$04@@QEAAAEAU3@U?$tvec3@M$0A@@glm@@0@Z@V?$allocator@UShellData@?1??reset@?$Hashspace@$0BAAA@$04@@QEAAAEAU3@U?$tvec3@M$0A@@glm@@0@Z@@std@@@0@0AEAV?$allocator@V?$vector@UShellData@?1??reset@?$Hashspace@$0BAAA@$04@@QEAAAEAU3@U?$tvec3@M$0A@@glm@@0@Z@V?$allocator@UShellData@?1??reset@?$Hashspace@$0BAAA@$04@@QEAAAEAU3@U?$tvec3@M$0A@@glm@@0@Z@@std@@@std@@@0@@Z 0000000180025cf8     node_module.obj
 0002:00009d04       $chain$0$??$_Destroy_range@V?$allocator@V?$vector@UShellData@?1??reset@?$Hashspace@$0BAAA@$04@@QEAAAEAU3@U?$tvec3@M$0A@@glm@@0@Z@V?$allocator@UShellData@?1??reset@?$Hashspace@$0BAAA@$04@@QEAAAEAU3@U?$tvec3@M$0A@@glm@@0@Z@@std@@@std@@@std@@@std@@YAXPEAV?$vector@UShellData@?1??reset@?$Hashspace@$0BAAA@$04@@QEAAAEAU3@U?$tvec3@M$0A@@glm@@0@Z@V?$allocator@UShellData@?1??reset@?$Hashspace@$0BAAA@$04@@QEAAAEAU3@U?$tvec3@M$0A@@glm@@0@Z@@std@@@0@0AEAV?$allocator@V?$vector@UShellData@?1??reset@?$Hashspace@$0BAAA@$04@@QEAAAEAU3@U?$tvec3@M$0A@@glm@@0@Z@V?$allocator@UShellData@?1??reset@?$Hashspace@$0BAAA@$04@@QEAAAEAU3@U?$tvec3@M$0A@@glm@@0@Z@@std@@@std@@@0@@Z 0000000180025d04     node_module.obj
 0002:00009d18       $chain$1$??$_Destroy_range@V?$allocator@V?$vector@UShellData@?1??reset@?$Hashspace@$0BAAA@$04@@QEAAAEAU3@U?$tvec3@M$0A@@glm@@0@Z@V?$allocator@UShellData@?1??reset@?$Hashspace@$0BAAA@$04@@QEAAAEAU3@U?$tvec3@M$0A@@glm@@0@Z@@std@@@std@@@std@@@std@@YAXPEAV?$vector@UShellData@?1??reset@?$Hashspace@$0BAAA@$04@@QEAAAEAU3@U?$tvec3@M$0A@@glm@@0@Z@V?$allocator@UShellData@?1??reset@?$Hashspace@$0BAAA@$04@@QEAAAEAU3@U?$tvec3@M$0A@@glm@@0@Z@@std@@@0@0AEAV?$allocator@V?$vector@UShellData@?1??reset@?$Hashspace@$0BAAA@$04@@QEAAAEAU3@U?$tvec3@M$0A@@glm@@0@Z@V?$allocator@UShellData@?1??reset@?$Hashspace@$0BAAA@$04@@QEAAAEAU3@U?$tvec3@M$0A@@glm@@0@Z@@std@@@std@@@0@@Z 0000000180025d18     node_module.obj
 0002:00009d28       $chain$2$??$_Destroy_range@V?$allocator@V?$vector@UShellData@?1??reset@?$Hashspace@$0BAAA@$04@@QEAAAEAU3@U?$tvec3@M$0A@@glm@@0@Z@V?$allocator@UShellData@?1??reset@?$Hashspace@$0BAAA@$04@@QEAAAEAU3@U?$tvec3@M$0A@@glm@@0@Z@@std@@@std@@@std@@@std@@YAXPEAV?$vector@UShellData@?1??reset@?$Hashspace@$0BAAA@$04@@QEAAAEAU3@U?$tvec3@M$0A@@glm@@0@Z@V?$allocator@UShellData@?1??reset@?$Hashspace@$0BAAA@$04@@QEAAAEAU3@U?$tvec3@M$0A@@glm@@0@Z@@std@@@0@0AEAV?$allocator@V?$vector@UShellData@?1??reset@?$Hashspace@$0BAAA@$04@@QEAAAEAU3@U?$tvec3@M$0A@@glm@@0@Z@V?$allocator@UShellData@?1??reset@?$Hashspace@$0BAAA@$04@@QEAAAEAU3@U?$tvec3@M$0A@@glm@@0@Z@@std@@@std@@@0@@Z 0000000180025d28     node_module.obj
 0002:00009d3c       $unwind$_free_osfhnd       0000000180025d3c     libucrt:osfinfo.obj
 0002:00009d3c       $unwind$?call@?$compute_rand@I$0A@Utvec1@glm@@@detail@glm@@SA?AU?$tvec1@I$0A@@3@XZ 0000000180025d3c     node_module.obj
 0002:00009d3c       $unwind$__std_exception_copy 0000000180025d3c     libvcruntime:std_exception.obj
 0002:00009d50       $unwind$?try_get_function@@YAPEAXW4function_id@?A0xbfd18cd1@@QEBDQEBW4module_id@2@2@Z 0000000180025d50     libvcruntime:winapi_downlevel.obj
 0002:00009d50       $unwind$?try_get_function@@YAPEAXW4function_id@?A0x391cf84c@@QEBDQEBW4module_id@2@2@Z 0000000180025d50     libucrt:winapi_thunks.obj
 0002:00009d50       $unwind$?call@?$compute_rand@G$0A@Utvec4@glm@@@detail@glm@@SA?AU?$tvec4@G$0A@@3@XZ 0000000180025d50     node_module.obj
 0002:00009d6c       $unwind$?type_case_integer@?$output_processor@_WV?$stream_output_adapter@_W@__crt_stdio_output@@V?$standard_base@_WV?$stream_output_adapter@_W@__crt_stdio_output@@@2@@__crt_stdio_output@@AEAA_NI_N@Z 0000000180025d6c     libucrt:output.obj
 0002:00009d6c       $unwind$??$common_xtox@K_W@@YAHKQEA_W_KI_N@Z 0000000180025d6c     libucrt:xtoa.obj
 0002:00009d6c       $unwind$?type_case_integer@?$output_processor@_WV?$string_output_adapter@_W@__crt_stdio_output@@V?$standard_base@_WV?$string_output_adapter@_W@__crt_stdio_output@@@2@@__crt_stdio_output@@AEAA_NI_N@Z 0000000180025d6c     libucrt:output.obj
 0002:00009d6c       $unwind$??R<lambda_f03950bc5685219e0bcd2087efbe011e>@@QEBAHXZ 0000000180025d6c     libucrt:onexit.obj
 0002:00009d6c       $unwind$?call@?$compute_rand@G$0A@Utvec3@glm@@@detail@glm@@SA?AU?$tvec3@G$0A@@3@XZ 0000000180025d6c     node_module.obj
 0002:00009d84       $unwind$??$compute_inverse@M$0A@@detail@glm@@YA?AU?$tmat4x4@M$0A@@1@AEBU21@@Z 0000000180025d84     node_module.obj
 0002:00009db4       $unwind$strcpy_s           0000000180025db4     libucrt:strcpy_s.obj
 0002:00009db4       $unwind$wcscpy_s           0000000180025db4     libucrt:wcscpy_s.obj
 0002:00009db4       $unwind$fegetenv           0000000180025db4     libucrt:fegetenv.obj
 0002:00009db4       $unwind$fesetenv           0000000180025db4     libucrt:fesetenv.obj
 0002:00009db4       $unwind$feholdexcept       0000000180025db4     libucrt:feholdexcept.obj
 0002:00009db4       $unwind$__acrt_stdio_free_buffer_nolock 0000000180025db4     libucrt:_freebuf.obj
 0002:00009db4       $unwind$??_Gtype_info@@UEAAPEAXI@Z 0000000180025db4     LIBCMT:std_type_info_static.obj
 0002:00009db4       $unwind$?DloadAcquireSectionWriteAccess@@YAXXZ 0000000180025db4     DelayImp:delayhlp.obj
 0002:00009db4       $unwind$_clrfp             0000000180025db4     libucrt:fpctrl.obj
 0002:00009db4       $unwind$uninitialize_allocated_memory 0000000180025db4     libucrt:initialization.obj
 0002:00009db4       $unwind$__acrt_get_parent_window 0000000180025db4     libucrt:winapi_thunks.obj
 0002:00009db4       $unwind$_fflush_nolock     0000000180025db4     libucrt:fflush.obj
 0002:00009db4       $unwind$initialize_pointers 0000000180025db4     libucrt:initialization.obj
 0002:00009db4       $unwind$?load_exe_hook@@YAP6A_JXZIPEAUDelayLoadInfo@@@Z 0000000180025db4     win_delay_load_hook.obj
 0002:00009db4       $unwind$__acrt_AppPolicyGetWindowingModelInternal 0000000180025db4     libucrt:winapi_thunks.obj
 0002:00009db4       $unwind$__acrt_update_multibyte_info 0000000180025db4     libucrt:locale_update.obj
 0002:00009db4       $unwind$??0bad_array_new_length@std@@QEAA@AEBV01@@Z 0000000180025db4     LIBCMT:throw_bad_alloc.obj
 0002:00009db4       $unwind$??2@YAPEAX_K@Z     0000000180025db4     LIBCMT:new_scalar.obj
 0002:00009db4       $unwind$__acrt_AppPolicyGetShowDeveloperDiagnosticInternal 0000000180025db4     libucrt:winapi_thunks.obj
 0002:00009db4       $unwind$__acrt_update_locale_info 0000000180025db4     libucrt:locale_update.obj
 0002:00009db4       $unwind$__raise_securityfailure 0000000180025db4     LIBCMT:gs_report.obj
 0002:00009db4       $unwind$_callnewh          0000000180025db4     libucrt:new_handler.obj
 0002:00009db4       $unwind$?exit_or_terminate_process@@YAXI@Z 0000000180025db4     libucrt:exit.obj
 0002:00009db4       $unwind$?try_cor_exit_process@@YAXI@Z 0000000180025db4     libucrt:exit.obj
 0002:00009db4       $unwind$??0bad_alloc@std@@QEAA@AEBV01@@Z 0000000180025db4     libcpmt:xthrow.obj
 0002:00009db4       $unwind$?stream_is_at_end_of_file_nolock@@YA_NV__crt_stdio_stream@@@Z 0000000180025db4     libucrt:_flsbuf.obj
 0002:00009db4       $unwind$__acrt_AppPolicyGetProcessTerminationMethodInternal 0000000180025db4     libucrt:winapi_thunks.obj
 0002:00009db4       $unwind$__acrt_initialize_locks 0000000180025db4     libucrt:locks.obj
 0002:00009db4       $unwind$_set_statfp        0000000180025db4     libucrt:fpctrl.obj
 0002:00009db4       $unwind$__scrt_release_startup_lock 0000000180025db4     LIBCMT:utility.obj
 0002:00009db4       $unwind$_malloc_base       0000000180025db4     libucrt:malloc_base.obj
 0002:00009db4       $unwind$??0logic_error@std@@QEAA@AEBV01@@Z 0000000180025db4     libcpmt:xthrow.obj
 0002:00009db4       $unwind$__acrt_getptd_head 0000000180025db4     libucrt:per_thread_data.obj
 0002:00009db4       $unwind$__scrt_initialize_crt 0000000180025db4     LIBCMT:utility.obj
 0002:00009db4       $unwind$?internal_isupper_l@@YA_NHQEAU__crt_locale_pointers@@@Z 0000000180025db4     libucrt:tolower_toupper.obj
 0002:00009db4       $unwind$_clearfp           0000000180025db4     libucrt:ieee.obj
 0002:00009db4       $unwind$__acrt_uninitialize_locks 0000000180025db4     libucrt:locks.obj
 0002:00009db4       $unwind$??0length_error@std@@QEAA@AEBV01@@Z 0000000180025db4     libcpmt:xthrow.obj
 0002:00009db4       $unwind$__acrt_get_process_end_policy 0000000180025db4     libucrt:win_policies.obj
 0002:00009db4       $unwind$__acrt_uninitialize_stdio 0000000180025db4     libucrt:_file.obj
 0002:00009db4       $unwind$__acrt_freeptd     0000000180025db4     libucrt:per_thread_data.obj
 0002:00009db4       $unwind$__acrt_allocate_buffer_for_argv 0000000180025db4     libucrt:argv_parsing.obj
 0002:00009db4       $unwind$__scrt_uninitialize_crt 0000000180025db4     LIBCMT:utility.obj
 0002:00009db4       $unwind$__acrt_FlsGetValue 0000000180025db4     libucrt:winapi_thunks.obj
 0002:00009db4       $unwind$_calloc_base       0000000180025db4     libucrt:calloc_base.obj
 0002:00009db4       $unwind$__std_exception_destroy 0000000180025db4     libvcruntime:std_exception.obj
 0002:00009db4       $unwind$__vcrt_FlsGetValue 0000000180025db4     libvcruntime:winapi_downlevel.obj
 0002:00009db4       $unwind$__acrt_FlsFree     0000000180025db4     libucrt:winapi_thunks.obj
 0002:00009db4       $unwind$__acrt_FlsAlloc    0000000180025db4     libucrt:winapi_thunks.obj
 0002:00009db4       $unwind$__std_type_info_destroy_list 0000000180025db4     libvcruntime:std_type_info.obj
 0002:00009db4       $unwind$wcscat_s           0000000180025db4     libucrt:wcscat_s.obj
 0002:00009db4       $unwind$__vcrt_uninitialize_locks 0000000180025db4     libvcruntime:locks.obj
 0002:00009db4       $unwind$__acrt_uninitialize_winapi_thunks 0000000180025db4     libucrt:winapi_thunks.obj
 0002:00009db4       $unwind$__vcrt_FlsFree     0000000180025db4     libvcruntime:winapi_downlevel.obj
 0002:00009db4       $unwind$??0exception@std@@QEAA@AEBV01@@Z 0000000180025db4     libcpmt:xthrow.obj
 0002:00009db4       $unwind$__acrt_get_windowing_model_policy 0000000180025db4     libucrt:win_policies.obj
 0002:00009db4       $unwind$__vcrt_freeptd     0000000180025db4     libvcruntime:per_thread_data.obj
 0002:00009db4       $unwind$__acrt_get_developer_information_policy 0000000180025db4     libucrt:win_policies.obj
 0002:00009db4       $unwind$__vcrt_FlsAlloc    0000000180025db4     libvcruntime:winapi_downlevel.obj
 0002:00009db4       $unwind$__vcrt_initialize_locks 0000000180025db4     libvcruntime:locks.obj
 0002:00009dbc       xdata                      0000000180025dbc     node:node.exe
 0002:00009dc4       $unwind$wcsncat_s          0000000180025dc4     libucrt:wcsncat_s.obj
 0002:00009dc4       $unwind$??$common_initialize_environment_nolock@D@@YAHXZ 0000000180025dc4     libucrt:environment_initialization.obj
 0002:00009dc4       $unwind$__acrt_stdio_begin_temporary_buffering_nolock 0000000180025dc4     libucrt:_sftbuf.obj
 0002:00009dc4       $unwind$__acrt_execute_uninitializers 0000000180025dc4     libucrt:shared_initialization.obj
 0002:00009dc4       $unwind$__acrt_fp_strflt_to_string 0000000180025dc4     libucrt:_fptostr.obj
 0002:00009dc4       $unwind$_updatetlocinfoEx_nolock 0000000180025dc4     libucrt:locale_refcounting.obj
 0002:00009dc4       $unwind$__vcrt_FlsSetValue 0000000180025dc4     libvcruntime:winapi_downlevel.obj
 0002:00009dc4       $unwind$??_Gbad_alloc@std@@UEAAPEAXI@Z 0000000180025dc4     libcpmt:xthrow.obj
 0002:00009dc4       $unwind$?replace_current_thread_locale_nolock@@YAXQEAU__acrt_ptd@@QEAU__crt_locale_data@@@Z 0000000180025dc4     libucrt:per_thread_data.obj
 0002:00009dc4       $unwind$??_Gbad_array_new_length@std@@UEAAPEAXI@Z 0000000180025dc4     LIBCMT:throw_bad_alloc.obj
 0002:00009dc4       $unwind$_fclose_nolock     0000000180025dc4     libucrt:fclose.obj
 0002:00009dc4       $unwind$_close_nolock      0000000180025dc4     libucrt:close.obj
 0002:00009dc4       $unwind$?force_decimal_point@__crt_stdio_output@@YAXPEADQEAU__crt_locale_pointers@@@Z 0000000180025dc4     libucrt:output.obj
 0002:00009dc4       $unwind$__acrt_uninitialize_lowio 0000000180025dc4     libucrt:ioinit.obj
 0002:00009dc4       $unwind$_RTC_Terminate     0000000180025dc4     LIBCMT:initsect.obj
 0002:00009dc4       $unwind$__acrt_can_show_message_box 0000000180025dc4     libucrt:winapi_thunks.obj
 0002:00009dc4       $unwind$__acrt_FlsSetValue 0000000180025dc4     libucrt:winapi_thunks.obj
 0002:00009dc4       $unwind$??_Gexception@std@@UEAAPEAXI@Z 0000000180025dc4     libcpmt:xthrow.obj
 0002:00009dc4       $unwind$_RTC_Initialize    0000000180025dc4     LIBCMT:initsect.obj
 0002:00009dc4       $unwind$__acrt_stdio_allocate_buffer_nolock 0000000180025dc4     libucrt:_getbuf.obj
 0002:00009dc4       $unwind$__acrt_LocaleNameToLCID 0000000180025dc4     libucrt:winapi_thunks.obj
 0002:00009dc4       $unwind$??_Glength_error@std@@UEAAPEAXI@Z 0000000180025dc4     libcpmt:xthrow.obj
 0002:00009dc4       $unwind$strncpy_s          0000000180025dc4     libucrt:strncpy_s.obj
 0002:00009dc4       $unwind$__acrt_errno_map_os_error 0000000180025dc4     libucrt:errno.obj
 0002:00009dc4       $unwind$_initterm_e        0000000180025dc4     libucrt:initterm.obj
 0002:00009dc4       $unwind$??_Glogic_error@std@@UEAAPEAXI@Z 0000000180025dc4     libcpmt:xthrow.obj
 0002:00009dc4       $unwind$?DloadGetSRWLockFunctionPointers@@YAEXZ 0000000180025dc4     DelayImp:delayhlp.obj
 0002:00009dc4       $unwind$_realloc_base      0000000180025dc4     libucrt:realloc_base.obj
 0002:00009dd0       $unwind$_raise_exc         0000000180025dd0     libucrt:fpexcept.obj
 0002:00009dd0       $unwind$_raise_excf        0000000180025dd0     libucrt:fpexcept.obj
 0002:00009dd0       $unwind$?__scrt_throw_std_bad_alloc@@YAXXZ 0000000180025dd0     LIBCMT:throw_bad_alloc.obj
 0002:00009dd0       $unwind$?__scrt_throw_std_bad_array_new_length@@YAXXZ 0000000180025dd0     LIBCMT:throw_bad_alloc.obj
 0002:00009dd0       $unwind$?_Xlength_error@std@@YAXPEBD@Z 0000000180025dd0     libcpmt:xthrow.obj
 0002:00009dd8       $unwind$??0length_error@std@@QEAA@PEBD@Z 0000000180025dd8     libcpmt:xthrow.obj
 0002:00009dd8       $unwind$??$common_xtox_s@K_W@@YAHKQEA_W_KI_N@Z 0000000180025dd8     libucrt:xtoa.obj
 0002:00009dd8       $unwind$?__mbrtowc_utf8@__crt_mbstring@@YA_KPEA_WPEBD_KPEAU_Mbstatet@@@Z 0000000180025dd8     libucrt:mbrtowc.obj
 0002:00009de0       $xdatasym                  0000000180025de0     LIBCMT:amdsecgs.obj
 0002:00009de4       $unwind$?dllmain_crt_process_attach@@YAHQEAUHINSTANCE__@@QEAX@Z 0000000180025de4     LIBCMT:dll_dllmain.obj
 0002:00009e20       $unwind$__acrt_initialize_lowio$fin$0 0000000180025e20     libucrt:ioinit.obj
 0002:00009e20       $unwind$_ctrlfp$filt$0     0000000180025e20     libucrt:fpctrl.obj
 0002:00009e20       $unwind$?fin$0@?0???$?RV<lambda_450d765d439847d4c735a33c368b5fc0>@@AEAV<lambda_44731a7d0e6d81c3e6aa82d741081786>@@V<lambda_601a2a7da3b7a96e9554ac7215c4b07c>@@@?$__crt_seh_guarded_call@P6AXH@Z@@QEAAP6AXH@Z$$QEAV<lambda_450d765d439847d4c735a33c368b5fc0>@@AEAV<lambda_44731a7d0e6d81c3e6aa82d741081786>@@$$QEAV<lambda_601a2a7da3b7a96e9554ac7215c4b07c>@@@Z@4HA 0000000180025e20     libucrt:signal.obj
 0002:00009e20       $unwind$?filt$0@?0???R<lambda_6e4b09c48022b2350581041d5f6b0c4c>@@QEBA@XZ@4HA 0000000180025e20     libucrt:exit.obj
 0002:00009e20       $unwind$fclose$fin$0       0000000180025e20     libucrt:fclose.obj
 0002:00009e20       $unwind$?fin$0@?0???$?RV<lambda_7777bce6b2f8c936911f934f8298dc43>@@AEAV<lambda_f03950bc5685219e0bcd2087efbe011e>@@V<lambda_3883c3dff614d5e0c5f61bb1ac94921c>@@@?$__crt_seh_guarded_call@H@@QEAAH$$QEAV<lambda_7777bce6b2f8c936911f934f8298dc43>@@AEAV<lambda_f03950bc5685219e0bcd2087efbe011e>@@$$QEAV<lambda_3883c3dff614d5e0c5f61bb1ac94921c>@@@Z@4HA 0000000180025e20     libucrt:onexit.obj
 0002:00009e20       $unwind$?fin$0@?0??update_thread_multibyte_data_internal@@YAPEAU__crt_multibyte_data@@QEAU__acrt_ptd@@QEAPEAU1@@Z@4HA 0000000180025e20     libucrt:mbctype.obj
 0002:00009e20       $unwind$_IsNonwritableInCurrentImage$filt$0 0000000180025e20     LIBCMT:pesect.obj
 0002:00009e20       $unwind$?fin$0@?0???$?RV<lambda_c376a267cfb53b6959b3b692ec76b120>@@AEAV<lambda_9a32fed5bf61b6b509b2d3f6003082a1>@@V<lambda_572fbb9fa0ab338edf41edfd4b5fcc8d>@@@?$__crt_seh_guarded_call@H@@QEAAH$$QEAV<lambda_c376a267cfb53b6959b3b692ec76b120>@@AEAV<lambda_9a32fed5bf61b6b509b2d3f6003082a1>@@$$QEAV<lambda_572fbb9fa0ab338edf41edfd4b5fcc8d>@@@Z@4HA 0000000180025e20     libucrt:fflush.obj
 0002:00009e20       $unwind$?fin$0@?0???$?RV<lambda_d80eeec6fff315bfe5c115232f3240e3>@@AEAV<lambda_6e4b09c48022b2350581041d5f6b0c4c>@@V<lambda_2358e3775559c9db80273638284d5e45>@@@?$__crt_seh_guarded_call@X@@QEAAX$$QEAV<lambda_d80eeec6fff315bfe5c115232f3240e3>@@AEAV<lambda_6e4b09c48022b2350581041d5f6b0c4c>@@$$QEAV<lambda_2358e3775559c9db80273638284d5e45>@@@Z@4HA 0000000180025e20     libucrt:exit.obj
 0002:00009e20       $unwind$?fin$0@?0???$?RV<lambda_efdfa57d1f175319df784efa44bb7b81>@@AEAV<lambda_5f0a4c1567f8adc6734073e5d1e1b35c>@@V<lambda_2e8a7d3640ea6ccb4c2413664c2db6fd>@@@?$__crt_seh_guarded_call@X@@QEAAX$$QEAV<lambda_efdfa57d1f175319df784efa44bb7b81>@@AEAV<lambda_5f0a4c1567f8adc6734073e5d1e1b35c>@@$$QEAV<lambda_2e8a7d3640ea6ccb4c2413664c2db6fd>@@@Z@4HA 0000000180025e20     libucrt:mbctype.obj
 0002:00009e20       $unwind$?fin$0@?0???$?RV<lambda_2d41944a1d46af3157314b8a01080d33>@@AEAV<lambda_8f455de75cd7d7f24b4096f044d8b9e6>@@V<lambda_aa500f224e6afead328df44964fe2772>@@@?$__crt_seh_guarded_call@X@@QEAAX$$QEAV<lambda_2d41944a1d46af3157314b8a01080d33>@@AEAV<lambda_8f455de75cd7d7f24b4096f044d8b9e6>@@$$QEAV<lambda_aa500f224e6afead328df44964fe2772>@@@Z@4HA 0000000180025e20     libucrt:per_thread_data.obj
 0002:00009e20       $unwind$?fin$0@?0???$?RV<lambda_886d6c58226a84441f68b9f2b8217b83>@@AEAV<lambda_ab61a845afdef5b7c387490eaf3616ee>@@V<lambda_f7f22ab5edc0698d5f6905b0d3f44752>@@@?$__crt_seh_guarded_call@X@@QEAAX$$QEAV<lambda_886d6c58226a84441f68b9f2b8217b83>@@AEAV<lambda_ab61a845afdef5b7c387490eaf3616ee>@@$$QEAV<lambda_f7f22ab5edc0698d5f6905b0d3f44752>@@@Z@4HA 0000000180025e20     libucrt:fflush.obj
 0002:00009e20       $unwind$__acrt_lowio_ensure_fh_exists$fin$0 0000000180025e20     libucrt:osfinfo.obj
 0002:00009e20       $unwind$?fin$0@?0???$?RV<lambda_842d9ff0dc9ef11c61343bbaebe7f885>@@AEAV<lambda_c5860995281e5c4ce005b3de8f5874ee>@@V<lambda_d90129c13df834fdcbf8d2b88dafcf2d>@@@?$__crt_seh_guarded_call@X@@QEAAX$$QEAV<lambda_842d9ff0dc9ef11c61343bbaebe7f885>@@AEAV<lambda_c5860995281e5c4ce005b3de8f5874ee>@@$$QEAV<lambda_d90129c13df834fdcbf8d2b88dafcf2d>@@@Z@4HA 0000000180025e20     libucrt:fflush.obj
 0002:00009e20       $unwind$__acrt_update_thread_locale_data$fin$0 0000000180025e20     libucrt:locale_refcounting.obj
 0002:00009e20       $unwind$?fin$0@?0???$?RV<lambda_84ec643ea9557e2f7dc01bb0e9624395>@@AEAV<lambda_ca71763b3c0644891230e4f79ea54fa6>@@V<lambda_439a761618c59b0600e24586724d733b>@@@?$__crt_seh_guarded_call@H@@QEAAH$$QEAV<lambda_84ec643ea9557e2f7dc01bb0e9624395>@@AEAV<lambda_ca71763b3c0644891230e4f79ea54fa6>@@$$QEAV<lambda_439a761618c59b0600e24586724d733b>@@@Z@4HA 0000000180025e20     libucrt:setvbuf.obj
 0002:00009e20       $unwind$?fin$0@?0??dllmain_crt_process_attach@@YAHQEAUHINSTANCE__@@QEAX@Z@4HA 0000000180025e20     LIBCMT:dll_dllmain.obj
 0002:00009e20       $unwind$?fin$0@?0??dllmain_crt_process_detach@@YAH_N@Z@4HA 0000000180025e20     LIBCMT:dll_dllmain.obj
 0002:00009e20       $unwind$__DestructExceptionObject$filt$0 0000000180025e20     libvcruntime:ehhelpers.obj
 0002:00009e20       $unwind$_write$fin$0       0000000180025e20     libucrt:write.obj
 0002:00009e20       $unwind$?fin$0@?0???$?RV<lambda_f2e299630e499de9f9a165e60fcd3db5>@@AEAV<lambda_2ae9d31cdba2644fcbeaf08da7c24588>@@V<lambda_40d01ff24d0e7b3814fdbdcee8eab3c7>@@@?$__crt_seh_guarded_call@X@@QEAAX$$QEAV<lambda_f2e299630e499de9f9a165e60fcd3db5>@@AEAV<lambda_2ae9d31cdba2644fcbeaf08da7c24588>@@$$QEAV<lambda_40d01ff24d0e7b3814fdbdcee8eab3c7>@@@Z@4HA 0000000180025e20     libucrt:per_thread_data.obj
 0002:00009e20       $unwind$?fin$0@?0???$?RV<lambda_0d412022a4b28cc8a401ea49574e8ae6>@@AEAV<lambda_a775ed57af18ba8e4d5dc780aa9068fe>@@V<lambda_975a71a6baa488a08f4e15f6b0339b9e>@@@?$__crt_seh_guarded_call@H@@QEAAH$$QEAV<lambda_0d412022a4b28cc8a401ea49574e8ae6>@@AEAV<lambda_a775ed57af18ba8e4d5dc780aa9068fe>@@$$QEAV<lambda_975a71a6baa488a08f4e15f6b0339b9e>@@@Z@4HA 0000000180025e20     libucrt:output.obj
 0002:00009e20       $unwind$?fin$0@?0???$?RV<lambda_0ae27a3a962d80f24befdcbee591983d>@@AEAV<lambda_8d0ee55de4b1038c4002e0adecdf1839>@@V<lambda_dc504788e8f1664fe9b84e20bfb512f2>@@@?$__crt_seh_guarded_call@X@@QEAAX$$QEAV<lambda_0ae27a3a962d80f24befdcbee591983d>@@AEAV<lambda_8d0ee55de4b1038c4002e0adecdf1839>@@$$QEAV<lambda_dc504788e8f1664fe9b84e20bfb512f2>@@@Z@4HA 0000000180025e20     libucrt:per_thread_data.obj
 0002:00009e20       $unwind$?fin$0@?0???$common_lseek@_J@@YA_JH_JH@Z@4HA 0000000180025e20     libucrt:lseek.obj
 0002:00009e20       $unwind$_fcloseall$fin$0   0000000180025e20     libucrt:closeall.obj
 0002:00009e20       $unwind$?fin$0@?0???$?RV<lambda_aa87e3671a710a21b5dc78c0bdf72e11>@@AEAV<lambda_92619d2358a28f41a33ba319515a20b9>@@V<lambda_6992ecaafeb10aed2b74cb1fae11a551>@@@?$__crt_seh_guarded_call@X@@QEAAX$$QEAV<lambda_aa87e3671a710a21b5dc78c0bdf72e11>@@AEAV<lambda_92619d2358a28f41a33ba319515a20b9>@@$$QEAV<lambda_6992ecaafeb10aed2b74cb1fae11a551>@@@Z@4HA 0000000180025e20     libucrt:per_thread_data.obj
 0002:00009e20       $unwind$_query_new_handler$fin$0 0000000180025e20     libucrt:new_handler.obj
 0002:00009e20       $unwind$?fin$0@?0???$?RV<lambda_410d79af7f07d98d83a3f525b3859a53>@@AEAV<lambda_3e16ef9562a7dcce91392c22ab16ea36>@@V<lambda_38119f0e861e05405d8a144b9b982f0a>@@@?$__crt_seh_guarded_call@X@@QEAAX$$QEAV<lambda_410d79af7f07d98d83a3f525b3859a53>@@AEAV<lambda_3e16ef9562a7dcce91392c22ab16ea36>@@$$QEAV<lambda_38119f0e861e05405d8a144b9b982f0a>@@@Z@4HA 0000000180025e20     libucrt:wsetlocale.obj
 0002:00009e20       $unwind$?fin$0@?0???$?RV<lambda_751a882b2c74d4b022dec766aa51a29a>@@AEAV<lambda_628dfdc04ba53c8bfc02c9951375f3f5>@@V<lambda_f6c7be5f7998530c34de24c7437d6b54>@@@?$__crt_seh_guarded_call@H@@QEAAH$$QEAV<lambda_751a882b2c74d4b022dec766aa51a29a>@@AEAV<lambda_628dfdc04ba53c8bfc02c9951375f3f5>@@$$QEAV<lambda_f6c7be5f7998530c34de24c7437d6b54>@@@Z@4HA 0000000180025e20     libucrt:close.obj
 0002:00009e20       $unwind$?fin$0@?0???$?RV<lambda_a37b2b86f63e897a80ea819b0eb08c01>@@AEAV<lambda_38ce7e780aa69e748d6df282ebc68efe>@@V<lambda_99fb1378e971ab6e7edea83e3a7a83a2>@@@?$__crt_seh_guarded_call@H@@QEAAH$$QEAV<lambda_a37b2b86f63e897a80ea819b0eb08c01>@@AEAV<lambda_38ce7e780aa69e748d6df282ebc68efe>@@$$QEAV<lambda_99fb1378e971ab6e7edea83e3a7a83a2>@@@Z@4HA 0000000180025e20     libucrt:commit.obj
 0002:00009e20       $unwind$raise$fin$0        0000000180025e20     libucrt:signal.obj
 0002:00009e28       $unwind$?dllmain_crt_process_detach@@YAH_N@Z 0000000180025e28     LIBCMT:dll_dllmain.obj
 0002:00009e60       $unwind$?dllmain_dispatch@@YAHQEAUHINSTANCE__@@KQEAX@Z 0000000180025e60     LIBCMT:dll_dllmain.obj
 0002:00009e88       $unwind$?filt$0@?0??dllmain_dispatch@@YAHQEAUHINSTANCE__@@KQEAX@Z@4HA 0000000180025e88     LIBCMT:dll_dllmain.obj
 0002:00009e90       $unwind$__acrt_execute_initializers 0000000180025e90     libucrt:shared_initialization.obj
 0002:00009e90       $unwind$?type_case_s@?$output_processor@_WV?$string_output_adapter@_W@__crt_stdio_output@@V?$standard_base@_WV?$string_output_adapter@_W@__crt_stdio_output@@@2@@__crt_stdio_output@@AEAA_NXZ 0000000180025e90     libucrt:output.obj
 0002:00009e90       $unwind$?type_case_n@?$output_processor@_WV?$string_output_adapter@_W@__crt_stdio_output@@V?$standard_base@_WV?$string_output_adapter@_W@__crt_stdio_output@@@2@@__crt_stdio_output@@AEAA_NXZ 0000000180025e90     libucrt:output.obj
 0002:00009e90       $unwind$?type_case_Z@?$output_processor@_WV?$string_output_adapter@_W@__crt_stdio_output@@V?$standard_base@_WV?$string_output_adapter@_W@__crt_stdio_output@@@2@@__crt_stdio_output@@AEAA_NXZ 0000000180025e90     libucrt:output.obj
 0002:00009e90       $unwind$__acrt_stdio_flush_and_write_wide_nolock 0000000180025e90     libucrt:_flsbuf.obj
 0002:00009e90       $unwind$_exception_enabled 0000000180025e90     libucrt:libm_error.obj
 0002:00009e90       $unwind$memcpy_s           0000000180025e90     libucrt:cfout.obj
 0002:00009e90       $unwind$?type_case_n@?$output_processor@_WV?$stream_output_adapter@_W@__crt_stdio_output@@V?$standard_base@_WV?$stream_output_adapter@_W@__crt_stdio_output@@@2@@__crt_stdio_output@@AEAA_NXZ 0000000180025e90     libucrt:output.obj
 0002:00009e90       $unwind$__vcrt_getptd_noexit 0000000180025e90     libvcruntime:per_thread_data.obj
 0002:00009e90       $unwind$__acrt_getptd_noexit 0000000180025e90     libucrt:per_thread_data.obj
 0002:00009e90       $unwind$__acrt_getptd      0000000180025e90     libucrt:per_thread_data.obj
 0002:00009e90       $unwind$?type_case_s@?$output_processor@_WV?$stream_output_adapter@_W@__crt_stdio_output@@V?$standard_base@_WV?$stream_output_adapter@_W@__crt_stdio_output@@@2@@__crt_stdio_output@@AEAA_NXZ 0000000180025e90     libucrt:output.obj
 0002:00009e90       $unwind$??R<lambda_ca71763b3c0644891230e4f79ea54fa6>@@QEBAHXZ 0000000180025e90     libucrt:setvbuf.obj
 0002:00009e90       $unwind$__acrt_InitializeCriticalSectionEx 0000000180025e90     libucrt:winapi_thunks.obj
 0002:00009e90       $unwind$?type_case_Z@?$output_processor@_WV?$stream_output_adapter@_W@__crt_stdio_output@@V?$standard_base@_WV?$stream_output_adapter@_W@__crt_stdio_output@@@2@@__crt_stdio_output@@AEAA_NXZ 0000000180025e90     libucrt:output.obj
 0002:00009e90       $unwind$_DllMainCRTStartup 0000000180025e90     LIBCMT:dll_dllmain.obj
 0002:00009e90       $unwind$??$common_lseek_nolock@_J@@YA_JH_JH@Z 0000000180025e90     libucrt:lseek.obj
 0002:00009e90       $unwind$??0_LocaleUpdate@@QEAA@QEAU__crt_locale_pointers@@@Z 0000000180025e90     libucrt:output.obj
 0002:00009e90       $unwind$?free_crt_array_internal@@YAXQEAPEBX_K@Z 0000000180025e90     libucrt:inittime.obj
 0002:00009e90       $unwind$__vcrt_InitializeCriticalSectionEx 0000000180025e90     libvcruntime:winapi_downlevel.obj
 0002:00009e90       $unwind$__acrt_stdio_flush_nolock 0000000180025e90     libucrt:fflush.obj
 0002:00009e90       $unwind$__acrt_stdio_flush_and_write_narrow_nolock 0000000180025e90     libucrt:_flsbuf.obj
 0002:00009ea0       $unwind$__report_securityfailure 0000000180025ea0     LIBCMT:gs_report.obj
 0002:00009ea8       $unwind$__report_gsfailure 0000000180025ea8     LIBCMT:gs_report.obj
 0002:00009eb0       $unwind$capture_current_context 0000000180025eb0     LIBCMT:gs_report.obj
 0002:00009ebc       $unwind$capture_previous_context 0000000180025ebc     LIBCMT:gs_report.obj
 0002:00009ec8       $unwind$__security_init_cookie 0000000180025ec8     LIBCMT:gs_support.obj
 0002:00009ed4       $unwind$__scrt_is_nonwritable_in_current_image 0000000180025ed4     LIBCMT:utility.obj
 0002:00009ef4       $unwind$__scrt_is_nonwritable_in_current_image$filt$0 0000000180025ef4     LIBCMT:utility.obj
 0002:00009efc       $unwind$?getSystemCP@@YAHH@Z 0000000180025efc     libucrt:mbctype.obj
 0002:00009efc       $unwind$_isleadbyte_l      0000000180025efc     libucrt:_wctype.obj
 0002:00009efc       $unwind$__dcrt_lowio_ensure_console_output_initialized 0000000180025efc     libucrt:initcon.obj
 0002:00009efc       $unwind$__scrt_initialize_onexit_tables 0000000180025efc     LIBCMT:utility.obj
 0002:00009f04       $unwind$?setSBCS@@YAXPEAU__crt_multibyte_data@@@Z 0000000180025f04     libucrt:mbctype.obj
 0002:00009f04       $unwind$__acrt_lowio_create_handle_array 0000000180025f04     libucrt:osfinfo.obj
 0002:00009f04       $unwind$??$ensure_buffer_is_big_enough@D@formatting_buffer@__crt_stdio_output@@QEAA_N_K@Z 0000000180025f04     libucrt:output.obj
 0002:00009f04       $unwind$??$ensure_buffer_is_big_enough@_W@formatting_buffer@__crt_stdio_output@@QEAA_N_K@Z 0000000180025f04     libucrt:output.obj
 0002:00009f04       $unwind$__acrt_free_locale 0000000180025f04     libucrt:locale_refcounting.obj
 0002:00009f04       $unwind$_wassert           0000000180025f04     libucrt:assert.obj
 0002:00009f04       $unwind$_initterm          0000000180025f04     libucrt:initterm.obj
 0002:00009f04       $unwind$_seh_filter_exe    0000000180025f04     libucrt:exception_filter.obj
 0002:00009f04       $unwind$__acrt_show_wide_message_box 0000000180025f04     libucrt:crtmbox.obj
 0002:00009f04       $unwind$__scrt_dllmain_exception_filter 0000000180025f04     LIBCMT:utility.obj
 0002:00009f04       $unwind$_recalloc_base     0000000180025f04     libucrt:recalloc.obj
 0002:00009f18       $unwind$__scrt_fastfail    0000000180025f18     LIBCMT:utility_desktop.obj
 0002:00009f28       $unwind$__isa_available_init 0000000180025f28     LIBCMT:cpu_disp.obj
 0002:00009f40       $xdatasym                  0000000180025f40     LIBCMT:guard_dispatch.obj
 0002:00009f44       $unwind$_CxxThrowException 0000000180025f44     libvcruntime:throw.obj
 0002:00009f54       $unwind$__C_specific_handler 0000000180025f54     libvcruntime:riscchandler.obj
 0002:00009f70       $xdatasym                  0000000180025f70     libvcruntime:memset.obj
 0002:00009f80       $xdatasym                  0000000180025f80     libvcruntime:notify.obj
 0002:00009f8c       $unwind$__DestructExceptionObject 0000000180025f8c     libvcruntime:ehhelpers.obj
 0002:00009fac       $unwind$__acrt_initialize_winapi_thunks 0000000180025fac     libucrt:winapi_thunks.obj
 0002:00009fac       $unwind$__vcrt_initialize_winapi_thunks 0000000180025fac     libvcruntime:winapi_downlevel.obj
 0002:00009fb4       $unwind$__acrt_stdio_end_temporary_buffering_nolock 0000000180025fb4     libucrt:_sftbuf.obj
 0002:00009fb4       $unwind$__vcrt_uninitialize_winapi_thunks 0000000180025fb4     libvcruntime:winapi_downlevel.obj
 0002:00009fc0       $xdatasym                  0000000180025fc0     libvcruntime:memcpy.obj
 0002:00009fd0       $xdatasym                  0000000180025fd0     libvcruntime:handlers.obj
 0002:00009fe0       $unwind$__acrt_initialize_stdio 0000000180025fe0     libucrt:_file.obj
 0002:00009fe0       $unwind$?initialize_stdio_handles_nolock@@YAXXZ 0000000180025fe0     libucrt:ioinit.obj
 0002:00009ff8       $unwind$__stdio_common_vfwprintf 0000000180025ff8     libucrt:output.obj
 0002:0000a000       $unwind$??$common_vsprintf@Vstandard_base@__crt_stdio_output@@_W@@YAH_KQEA_W0QEB_WQEAU__crt_locale_pointers@@QEAD@Z 0000000180026000     libucrt:output.obj
 0002:0000a020       $unwind$?write_string_impl@?$output_adapter_common@_WV?$stream_output_adapter@_W@__crt_stdio_output@@@__crt_stdio_output@@IEBAXQEB_WHQEAHAEAV__crt_deferred_errno_cache@@@Z 0000000180026020     libucrt:output.obj
 0002:0000a020       $unwind$??$parse_command_line@D@@YAXPEADPEAPEAD0PEA_K2@Z 0000000180026020     libucrt:argv_parsing.obj
 0002:0000a03c       $unwind$?process@?$output_processor@_WV?$string_output_adapter@_W@__crt_stdio_output@@V?$standard_base@_WV?$string_output_adapter@_W@__crt_stdio_output@@@2@@__crt_stdio_output@@QEAAHXZ 000000018002603c     libucrt:output.obj
 0002:0000a03c       $unwind$?process@?$output_processor@_WV?$stream_output_adapter@_W@__crt_stdio_output@@V?$standard_base@_WV?$stream_output_adapter@_W@__crt_stdio_output@@@2@@__crt_stdio_output@@QEAAHXZ 000000018002603c     libucrt:output.obj
 0002:0000a050       $unwind$?parse_int_from_format_string@?$output_processor@_WV?$string_output_adapter@_W@__crt_stdio_output@@V?$standard_base@_WV?$string_output_adapter@_W@__crt_stdio_output@@@2@@__crt_stdio_output@@AEAA_NQEAH@Z 0000000180026050     libucrt:output.obj
 0002:0000a050       $unwind$?parse_int_from_format_string@?$output_processor@_WV?$stream_output_adapter@_W@__crt_stdio_output@@V?$standard_base@_WV?$stream_output_adapter@_W@__crt_stdio_output@@@2@@__crt_stdio_output@@AEAA_NQEAH@Z 0000000180026050     libucrt:output.obj
 0002:0000a064       $unwind$?state_case_type@?$output_processor@_WV?$stream_output_adapter@_W@__crt_stdio_output@@V?$standard_base@_WV?$stream_output_adapter@_W@__crt_stdio_output@@@2@@__crt_stdio_output@@AEAA_NXZ 0000000180026064     libucrt:output.obj
 0002:0000a084       $unwind$?type_case_c_tchar@?$output_processor@_WV?$string_output_adapter@_W@__crt_stdio_output@@V?$standard_base@_WV?$string_output_adapter@_W@__crt_stdio_output@@@2@@__crt_stdio_output@@AEAA_N_W@Z 0000000180026084     libucrt:output.obj
 0002:0000a084       $unwind$?type_case_c_tchar@?$output_processor@_WV?$stream_output_adapter@_W@__crt_stdio_output@@V?$standard_base@_WV?$stream_output_adapter@_W@__crt_stdio_output@@@2@@__crt_stdio_output@@AEAA_N_W@Z 0000000180026084     libucrt:output.obj
 0002:0000a094       $unwind$?type_case_a@?$output_processor@_WV?$string_output_adapter@_W@__crt_stdio_output@@V?$standard_base@_WV?$string_output_adapter@_W@__crt_stdio_output@@@2@@__crt_stdio_output@@AEAA_NXZ 0000000180026094     libucrt:output.obj
 0002:0000a094       $unwind$?type_case_a@?$output_processor@_WV?$stream_output_adapter@_W@__crt_stdio_output@@V?$standard_base@_WV?$stream_output_adapter@_W@__crt_stdio_output@@@2@@__crt_stdio_output@@AEAA_NXZ 0000000180026094     libucrt:output.obj
 0002:0000a0a4       $unwind$?write_stored_string_tchar@?$output_processor@_WV?$stream_output_adapter@_W@__crt_stdio_output@@V?$standard_base@_WV?$stream_output_adapter@_W@__crt_stdio_output@@@2@@__crt_stdio_output@@AEAA_N_W@Z 00000001800260a4     libucrt:output.obj
 0002:0000a0b8       $unwind$??R<lambda_a775ed57af18ba8e4d5dc780aa9068fe>@@QEBAHXZ 00000001800260b8     libucrt:output.obj
 0002:0000a0d8       $unwind$?write_string@?$string_output_adapter@_W@__crt_stdio_output@@QEBAXQEB_WHQEAHAEAV__crt_deferred_errno_cache@@@Z 00000001800260d8     libucrt:output.obj
 0002:0000a0f0       $unwind$?state_case_type@?$output_processor@_WV?$string_output_adapter@_W@__crt_stdio_output@@V?$standard_base@_WV?$string_output_adapter@_W@__crt_stdio_output@@@2@@__crt_stdio_output@@AEAA_NXZ 00000001800260f0     libucrt:output.obj
 0002:0000a114       $unwind$?write_stored_string_tchar@?$output_processor@_WV?$string_output_adapter@_W@__crt_stdio_output@@V?$standard_base@_WV?$string_output_adapter@_W@__crt_stdio_output@@@2@@__crt_stdio_output@@AEAA_N_W@Z 0000000180026114     libucrt:output.obj
 0002:0000a128       $unwind$??$write_multiple_characters@V?$string_output_adapter@_W@__crt_stdio_output@@D@__crt_stdio_output@@YAXAEBV?$string_output_adapter@_W@0@DHQEAH@Z 0000000180026128     libucrt:output.obj
 0002:0000a134       $unwind$??$write_multiple_characters@V?$stream_output_adapter@_W@__crt_stdio_output@@D@__crt_stdio_output@@YAXAEBV?$stream_output_adapter@_W@0@DHQEAH@Z 0000000180026134     libucrt:output.obj
 0002:0000a14c       $unwind$??$type_case_integer_parse_into_buffer@_K@?$output_processor@_WV?$stream_output_adapter@_W@__crt_stdio_output@@V?$standard_base@_WV?$stream_output_adapter@_W@__crt_stdio_output@@@2@@__crt_stdio_output@@AEAAX_KI_N@Z 000000018002614c     libucrt:output.obj
 0002:0000a14c       $unwind$??$type_case_integer_parse_into_buffer@_K@?$output_processor@_WV?$string_output_adapter@_W@__crt_stdio_output@@V?$standard_base@_WV?$string_output_adapter@_W@__crt_stdio_output@@@2@@__crt_stdio_output@@AEAAX_KI_N@Z 000000018002614c     libucrt:output.obj
 0002:0000a14c       $unwind$??$type_case_integer_parse_into_buffer@I@?$output_processor@_WV?$string_output_adapter@_W@__crt_stdio_output@@V?$standard_base@_WV?$string_output_adapter@_W@__crt_stdio_output@@@2@@__crt_stdio_output@@AEAAXII_N@Z 000000018002614c     libucrt:output.obj
 0002:0000a14c       $unwind$??$type_case_integer_parse_into_buffer@I@?$output_processor@_WV?$stream_output_adapter@_W@__crt_stdio_output@@V?$standard_base@_WV?$stream_output_adapter@_W@__crt_stdio_output@@@2@@__crt_stdio_output@@AEAAXII_N@Z 000000018002614c     libucrt:output.obj
 0002:0000a154       $unwind$??$?RV<lambda_0d412022a4b28cc8a401ea49574e8ae6>@@AEAV<lambda_a775ed57af18ba8e4d5dc780aa9068fe>@@V<lambda_975a71a6baa488a08f4e15f6b0339b9e>@@@?$__crt_seh_guarded_call@H@@QEAAH$$QEAV<lambda_0d412022a4b28cc8a401ea49574e8ae6>@@AEAV<lambda_a775ed57af18ba8e4d5dc780aa9068fe>@@$$QEAV<lambda_975a71a6baa488a08f4e15f6b0339b9e>@@@Z 0000000180026154     libucrt:output.obj
 0002:0000a178       $unwind$fwprintf           0000000180026178     libucrt:assert.obj
 0002:0000a184       $unwind$swprintf           0000000180026184     libucrt:assert.obj
 0002:0000a194       $unwind$??$common_assert_to_stderr@_W@@YAXQEB_W0I@Z 0000000180026194     libucrt:assert.obj
 0002:0000a1b0       $unwind$??$common_assert_to_message_box@_W@@YAXQEB_W0IQEAX@Z 00000001800261b0     libucrt:assert.obj
 0002:0000a1cc       $unwind$??$common_assert_to_message_box_build_string@_W@@YAXQEA_W_KQEB_W2IQEAX@Z 00000001800261cc     libucrt:assert.obj
 0002:0000a1ec       $unwind$_invalid_parameter_noinfo 00000001800261ec     libucrt:invalid_parameter.obj
 0002:0000a1ec       $unwind$_log10_special     00000001800261ec     libucrt:log_special.obj
 0002:0000a1ec       $unwind$fflush             00000001800261ec     libucrt:fflush.obj
 0002:0000a1ec       $unwind$wctomb_s           00000001800261ec     libucrt:wctomb.obj
 0002:0000a1ec       $unwind$_itow_s            00000001800261ec     libucrt:xtoa.obj
 0002:0000a1ec       $unwind$wcstol             00000001800261ec     libucrt:strtox.obj
 0002:0000a1ec       $unwind$_invalid_parameter_noinfo_noreturn 00000001800261ec     libucrt:invalid_parameter.obj
 0002:0000a1f4       $unwind$__acrt_call_reportfault 00000001800261f4     libucrt:invalid_parameter.obj
 0002:0000a214       $unwind$_invalid_parameter 0000000180026214     libucrt:invalid_parameter.obj
 0002:0000a214       $unwind$__acrt_MessageBoxW 0000000180026214     libucrt:winapi_thunks.obj
 0002:0000a228       $unwind$?x_ismbbtype_l@@YAHPEAU__crt_locale_pointers@@IHH@Z 0000000180026228     libucrt:ismbbyte.obj
 0002:0000a228       $unwind$_stricmp_l         0000000180026228     libucrt:stricmp.obj
 0002:0000a238       $unwind$_query_new_handler 0000000180026238     libucrt:new_handler.obj
 0002:0000a258       $unwind$?common_exit@@YAXHW4_crt_exit_cleanup_mode@@W4_crt_exit_return_mode@@@Z 0000000180026258     libucrt:exit.obj
 0002:0000a264       $unwind$??R<lambda_6e4b09c48022b2350581041d5f6b0c4c>@@QEBA@XZ 0000000180026264     libucrt:exit.obj
 0002:0000a284       $unwind$??$?RV<lambda_d80eeec6fff315bfe5c115232f3240e3>@@AEAV<lambda_6e4b09c48022b2350581041d5f6b0c4c>@@V<lambda_2358e3775559c9db80273638284d5e45>@@@?$__crt_seh_guarded_call@X@@QEAAX$$QEAV<lambda_d80eeec6fff315bfe5c115232f3240e3>@@AEAV<lambda_6e4b09c48022b2350581041d5f6b0c4c>@@$$QEAV<lambda_2358e3775559c9db80273638284d5e45>@@@Z 0000000180026284     libucrt:exit.obj
 0002:0000a2a8       $unwind$_configure_narrow_argv 00000001800262a8     libucrt:argv_parsing.obj
 0002:0000a2bc       $unwind$??$free_environment@_W@@YAXQEAPEA_W@Z 00000001800262bc     libucrt:environment_initialization.obj
 0002:0000a2bc       $unwind$??$free_environment@D@@YAXQEAPEAD@Z 00000001800262bc     libucrt:environment_initialization.obj
 0002:0000a2c8       $unwind$??$create_environment@D@@YAQEAPEADQEAD@Z 00000001800262c8     libucrt:environment_initialization.obj
 0002:0000a2e0       $unwind$_execute_onexit_table 00000001800262e0     libucrt:onexit.obj
 0002:0000a2e8       $unwind$??$?RV<lambda_7777bce6b2f8c936911f934f8298dc43>@@AEAV<lambda_f03950bc5685219e0bcd2087efbe011e>@@V<lambda_3883c3dff614d5e0c5f61bb1ac94921c>@@@?$__crt_seh_guarded_call@H@@QEAAH$$QEAV<lambda_7777bce6b2f8c936911f934f8298dc43>@@AEAV<lambda_f03950bc5685219e0bcd2087efbe011e>@@$$QEAV<lambda_3883c3dff614d5e0c5f61bb1ac94921c>@@@Z 00000001800262e8     libucrt:onexit.obj
 0002:0000a30c       $unwind$terminate          000000018002630c     libucrt:terminate.obj
 0002:0000a32c       $unwind$??$parse_integer@KV?$c_string_character_source@_W@__crt_strtox@@@__crt_strtox@@YAKQEAU__crt_locale_pointers@@V?$c_string_character_source@_W@0@H_N@Z 000000018002632c     libucrt:atox.obj
 0002:0000a348       $xdatasym                  0000000180026348     libucrt:strncmp.obj
 0002:0000a34c       $unwind$??$write_buffer_nolock@D@@YA_NDV__crt_stdio_stream@@@Z 000000018002634c     libucrt:_flsbuf.obj
 0002:0000a35c       $unwind$??$write_buffer_nolock@_W@@YA_N_WV__crt_stdio_stream@@@Z 000000018002635c     libucrt:_flsbuf.obj
 0002:0000a36c       $unwind$__acrt_initialize_lowio 000000018002636c     libucrt:ioinit.obj
 0002:0000a38c       $unwind$?initialize_inherited_file_handles_nolock@@YAXXZ 000000018002638c     libucrt:ioinit.obj
 0002:0000a3a8       $unwind$_free_base         00000001800263a8     libucrt:free_base.obj
 0002:0000a3a8       $unwind$__acrt_locale_free_lc_time_if_unreferenced 00000001800263a8     libucrt:locale_refcounting.obj
 0002:0000a3a8       $unwind$?destroy_fls@@YAXPEAX@Z 00000001800263a8     libucrt:per_thread_data.obj
 0002:0000a3a8       $unwind$__acrt_locale_free_numeric 00000001800263a8     libucrt:initnum.obj
 0002:0000a3b0       $unwind$_mbtowc_l          00000001800263b0     libucrt:mbtowc.obj
 0002:0000a3b0       $unwind$?fp_format_e@@YAHQEBNQEAD_K12H_NIQEAU__crt_locale_pointers@@@Z 00000001800263b0     libucrt:cvt.obj
 0002:0000a3b0       $unwind$__acrt_LCMapStringEx 00000001800263b0     libucrt:winapi_thunks.obj
 0002:0000a3c4       $unwind$__acrt_is_interactive 00000001800263c4     libucrt:winapi_thunks.obj
 0002:0000a3d8       $unwind$_fcloseall         00000001800263d8     libucrt:closeall.obj
 0002:0000a3fc       $unwind$?common_flush_all@@YAH_N@Z 00000001800263fc     libucrt:fflush.obj
 0002:0000a404       $unwind$??$?RV<lambda_842d9ff0dc9ef11c61343bbaebe7f885>@@AEAV<lambda_c5860995281e5c4ce005b3de8f5874ee>@@V<lambda_d90129c13df834fdcbf8d2b88dafcf2d>@@@?$__crt_seh_guarded_call@X@@QEAAX$$QEAV<lambda_842d9ff0dc9ef11c61343bbaebe7f885>@@AEAV<lambda_c5860995281e5c4ce005b3de8f5874ee>@@$$QEAV<lambda_d90129c13df834fdcbf8d2b88dafcf2d>@@@Z 0000000180026404     libucrt:fflush.obj
 0002:0000a428       $unwind$??$?RV<lambda_886d6c58226a84441f68b9f2b8217b83>@@AEAV<lambda_ab61a845afdef5b7c387490eaf3616ee>@@V<lambda_f7f22ab5edc0698d5f6905b0d3f44752>@@@?$__crt_seh_guarded_call@X@@QEAAX$$QEAV<lambda_886d6c58226a84441f68b9f2b8217b83>@@AEAV<lambda_ab61a845afdef5b7c387490eaf3616ee>@@$$QEAV<lambda_f7f22ab5edc0698d5f6905b0d3f44752>@@@Z 0000000180026428     libucrt:fflush.obj
 0002:0000a450       $unwind$??$?RV<lambda_c376a267cfb53b6959b3b692ec76b120>@@AEAV<lambda_9a32fed5bf61b6b509b2d3f6003082a1>@@V<lambda_572fbb9fa0ab338edf41edfd4b5fcc8d>@@@?$__crt_seh_guarded_call@H@@QEAAH$$QEAV<lambda_c376a267cfb53b6959b3b692ec76b120>@@AEAV<lambda_9a32fed5bf61b6b509b2d3f6003082a1>@@$$QEAV<lambda_572fbb9fa0ab338edf41edfd4b5fcc8d>@@@Z 0000000180026450     libucrt:fflush.obj
 0002:0000a474       $unwind$?construct_ptd_array@@YAXQEAU__acrt_ptd@@@Z 0000000180026474     libucrt:per_thread_data.obj
 0002:0000a47c       $unwind$?destroy_ptd_array@@YAXQEAU__acrt_ptd@@@Z 000000018002647c     libucrt:per_thread_data.obj
 0002:0000a484       $unwind$??$?RV<lambda_0ae27a3a962d80f24befdcbee591983d>@@AEAV<lambda_8d0ee55de4b1038c4002e0adecdf1839>@@V<lambda_dc504788e8f1664fe9b84e20bfb512f2>@@@?$__crt_seh_guarded_call@X@@QEAAX$$QEAV<lambda_0ae27a3a962d80f24befdcbee591983d>@@AEAV<lambda_8d0ee55de4b1038c4002e0adecdf1839>@@$$QEAV<lambda_dc504788e8f1664fe9b84e20bfb512f2>@@@Z 0000000180026484     libucrt:per_thread_data.obj
 0002:0000a4a8       $unwind$??$?RV<lambda_aa87e3671a710a21b5dc78c0bdf72e11>@@AEAV<lambda_92619d2358a28f41a33ba319515a20b9>@@V<lambda_6992ecaafeb10aed2b74cb1fae11a551>@@@?$__crt_seh_guarded_call@X@@QEAAX$$QEAV<lambda_aa87e3671a710a21b5dc78c0bdf72e11>@@AEAV<lambda_92619d2358a28f41a33ba319515a20b9>@@$$QEAV<lambda_6992ecaafeb10aed2b74cb1fae11a551>@@@Z 00000001800264a8     libucrt:per_thread_data.obj
 0002:0000a4cc       $unwind$??$?RV<lambda_f2e299630e499de9f9a165e60fcd3db5>@@AEAV<lambda_2ae9d31cdba2644fcbeaf08da7c24588>@@V<lambda_40d01ff24d0e7b3814fdbdcee8eab3c7>@@@?$__crt_seh_guarded_call@X@@QEAAX$$QEAV<lambda_f2e299630e499de9f9a165e60fcd3db5>@@AEAV<lambda_2ae9d31cdba2644fcbeaf08da7c24588>@@$$QEAV<lambda_40d01ff24d0e7b3814fdbdcee8eab3c7>@@@Z 00000001800264cc     libucrt:per_thread_data.obj
 0002:0000a4f0       $unwind$??$?RV<lambda_2d41944a1d46af3157314b8a01080d33>@@AEAV<lambda_8f455de75cd7d7f24b4096f044d8b9e6>@@V<lambda_aa500f224e6afead328df44964fe2772>@@@?$__crt_seh_guarded_call@X@@QEAAX$$QEAV<lambda_2d41944a1d46af3157314b8a01080d33>@@AEAV<lambda_8f455de75cd7d7f24b4096f044d8b9e6>@@$$QEAV<lambda_aa500f224e6afead328df44964fe2772>@@@Z 00000001800264f0     libucrt:per_thread_data.obj
 0002:0000a514       $unwind$isdigit            0000000180026514     libucrt:_ctype.obj
 0002:0000a514       $unwind$_mbsdec_l          0000000180026514     libucrt:mbsdec.obj
 0002:0000a520       $unwind$_tolower_l         0000000180026520     libucrt:tolower_toupper.obj
 0002:0000a530       $unwind$_wctomb_s_l        0000000180026530     libucrt:wctomb.obj
 0002:0000a540       $unwind$__acrt_fp_format   0000000180026540     libucrt:cvt.obj
 0002:0000a554       $unwind$?fp_format_nan_or_infinity@@YAHW4__acrt_fp_class@@_NPEAD_K1@Z 0000000180026554     libucrt:cvt.obj
 0002:0000a568       $unwind$?fp_format_e_internal@@YAHQEAD_KH_NIQEAU_strflt@@2QEAU__crt_locale_pointers@@@Z 0000000180026568     libucrt:cvt.obj
 0002:0000a580       $unwind$?fp_format_a@@YAHQEBNPEAD_KQEAD2H_NIQEAU__crt_locale_pointers@@@Z 0000000180026580     libucrt:cvt.obj
 0002:0000a59c       $unwind$?fp_format_f_internal@@YAHQEAD_KHQEAU_strflt@@_NQEAU__crt_locale_pointers@@@Z 000000018002659c     libucrt:cvt.obj
 0002:0000a59c       $unwind$??$__acrt_wcs_to_mbs_cp@U__crt_win32_buffer_internal_dynamic_resizing@@@@YAHQEB_WAEAV?$__crt_win32_buffer@DU__crt_win32_buffer_internal_dynamic_resizing@@@@I@Z 000000018002659c     libucrt:argv_wildcards.obj
 0002:0000a59c       $unwind$__dcrt_get_narrow_environment_from_os 000000018002659c     libucrt:get_environment_from_os.obj
 0002:0000a5b4       $unwind$?fp_format_g@@YAHQEBNQEAD_K12H_NIQEAU__crt_locale_pointers@@@Z 00000001800265b4     libucrt:cvt.obj
 0002:0000a5c8       $unwind$_fputwc_nolock     00000001800265c8     libucrt:fputwc.obj
 0002:0000a5e4       $unwind$__acrt_uninitialize_locale 00000001800265e4     libucrt:wsetlocale.obj
 0002:0000a5e4       $unwind$__acrt_get_sigabrt_handler 00000001800265e4     libucrt:signal.obj
 0002:0000a5ec       $unwind$??$?RV<lambda_410d79af7f07d98d83a3f525b3859a53>@@AEAV<lambda_3e16ef9562a7dcce91392c22ab16ea36>@@V<lambda_38119f0e861e05405d8a144b9b982f0a>@@@?$__crt_seh_guarded_call@X@@QEAAX$$QEAV<lambda_410d79af7f07d98d83a3f525b3859a53>@@AEAV<lambda_3e16ef9562a7dcce91392c22ab16ea36>@@$$QEAV<lambda_38119f0e861e05405d8a144b9b982f0a>@@@Z 00000001800265ec     libucrt:wsetlocale.obj
 0002:0000a614       $unwind$__acrt_GetModuleFileNameA 0000000180026614     libucrt:getmodulefilenamea.obj
 0002:0000a630       $unwind$??$__acrt_wcs_to_mbs_cp@U__crt_win32_buffer_no_resizing@@@@YAHQEB_WAEAV?$__crt_win32_buffer@DU__crt_win32_buffer_no_resizing@@@@I@Z 0000000180026630     libucrt:getmodulefilenamea.obj
 0002:0000a630       $unwind$__dcrt_write_console 0000000180026630     libucrt:initcon.obj
 0002:0000a644       $unwind$setvbuf            0000000180026644     libucrt:setvbuf.obj
 0002:0000a64c       $unwind$??$?RV<lambda_84ec643ea9557e2f7dc01bb0e9624395>@@AEAV<lambda_ca71763b3c0644891230e4f79ea54fa6>@@V<lambda_439a761618c59b0600e24586724d733b>@@@?$__crt_seh_guarded_call@H@@QEAAH$$QEAV<lambda_84ec643ea9557e2f7dc01bb0e9624395>@@AEAV<lambda_ca71763b3c0644891230e4f79ea54fa6>@@$$QEAV<lambda_439a761618c59b0600e24586724d733b>@@@Z 000000018002664c     libucrt:setvbuf.obj
 0002:0000a670       $unwind$raise              0000000180026670     libucrt:signal.obj
 0002:0000a6ac       $unwind$??$?RV<lambda_450d765d439847d4c735a33c368b5fc0>@@AEAV<lambda_44731a7d0e6d81c3e6aa82d741081786>@@V<lambda_601a2a7da3b7a96e9554ac7215c4b07c>@@@?$__crt_seh_guarded_call@P6AXH@Z@@QEAAP6AXH@Z$$QEAV<lambda_450d765d439847d4c735a33c368b5fc0>@@AEAV<lambda_44731a7d0e6d81c3e6aa82d741081786>@@$$QEAV<lambda_601a2a7da3b7a96e9554ac7215c4b07c>@@@Z 00000001800266ac     libucrt:signal.obj
 0002:0000a6d0       $unwind$??$__acrt_mbs_to_wcs_cp@U__crt_win32_buffer_internal_dynamic_resizing@@@@YAHQEBDAEAV?$__crt_win32_buffer@_WU__crt_win32_buffer_internal_dynamic_resizing@@@@I@Z 00000001800266d0     libucrt:argv_wildcards.obj
 0002:0000a6e8       $unwind$??$common_expand_argv_wildcards@D@@YAHQEAPEADQEAPEAPEAD@Z 00000001800266e8     libucrt:argv_wildcards.obj
 0002:0000a700       $unwind$??$copy_and_add_argument_to_buffer@D@@YAHQEBD0_KAEAV?$argument_list@D@?A0x5f5c8891@@@Z 0000000180026700     libucrt:argv_wildcards.obj
 0002:0000a71c       $unwind$??$expand_argument_wildcards@D@@YAHQEAD0AEAV?$argument_list@D@?A0x5f5c8891@@@Z 000000018002671c     libucrt:argv_wildcards.obj
 0002:0000a740       $unwind$_setmbcp_nolock    0000000180026740     libucrt:mbctype.obj
 0002:0000a760       $unwind$?update_thread_multibyte_data_internal@@YAPEAU__crt_multibyte_data@@QEAU__acrt_ptd@@QEAPEAU1@@Z 0000000180026760     libucrt:mbctype.obj
 0002:0000a788       $unwind$?setmbcp_internal@@YAHH_NQEAU__acrt_ptd@@QEAPEAU__crt_multibyte_data@@@Z 0000000180026788     libucrt:mbctype.obj
 0002:0000a798       $unwind$?setSBUpLow@@YAXPEAU__crt_multibyte_data@@@Z 0000000180026798     libucrt:mbctype.obj
 0002:0000a7b4       $unwind$??$?RV<lambda_efdfa57d1f175319df784efa44bb7b81>@@AEAV<lambda_5f0a4c1567f8adc6734073e5d1e1b35c>@@V<lambda_2e8a7d3640ea6ccb4c2413664c2db6fd>@@@?$__crt_seh_guarded_call@X@@QEAAX$$QEAV<lambda_efdfa57d1f175319df784efa44bb7b81>@@AEAV<lambda_5f0a4c1567f8adc6734073e5d1e1b35c>@@$$QEAV<lambda_2e8a7d3640ea6ccb4c2413664c2db6fd>@@@Z 00000001800267b4     libucrt:mbctype.obj
 0002:0000a7d8       $unwind$__GSHandlerCheckCommon 00000001800267d8     LIBCMT:gshandler.obj
 0002:0000a7d8       $unwind$__acrt_WideCharToMultiByte 00000001800267d8     libucrt:widechartomultibyte.obj
 0002:0000a7e0       $unwind$iswctype           00000001800267e0     libucrt:iswctype.obj
 0002:0000a7ec       $unwind$_isctype_l         00000001800267ec     libucrt:isctype.obj
 0002:0000a808       $unwind$__acrt_lowio_destroy_handle_array 0000000180026808     libucrt:osfinfo.obj
 0002:0000a818       $unwind$__acrt_lowio_ensure_fh_exists 0000000180026818     libucrt:osfinfo.obj
 0002:0000a844       $unwind$_write             0000000180026844     libucrt:write.obj
 0002:0000a874       $unwind$_write_nolock      0000000180026874     libucrt:write.obj
 0002:0000a88c       $unwind$?write_double_translated_ansi_nolock@@YA?AUwrite_result@?A0x17268360@@HQEBDI@Z 000000018002688c     libucrt:write.obj
 0002:0000a8b0       $unwind$?write_text_utf16le_nolock@@YA?AUwrite_result@?A0x17268360@@HQEBDI@Z 00000001800268b0     libucrt:write.obj
 0002:0000a8b0       $unwind$?write_text_ansi_nolock@@YA?AUwrite_result@?A0x17268360@@HQEBDI@Z 00000001800268b0     libucrt:write.obj
 0002:0000a8d0       $unwind$?write_text_utf8_nolock@@YA?AUwrite_result@?A0x17268360@@HQEBDI@Z 00000001800268d0     libucrt:write.obj
 0002:0000a8f4       $unwind$??$common_lseek@_J@@YA_JH_JH@Z 00000001800268f4     libucrt:lseek.obj
 0002:0000a924       $unwind$?GetTableIndexFromLocaleName@@YAHPEB_W@Z 0000000180026924     libucrt:lcidtoname_downlevel.obj
 0002:0000a93c       $unwind$fclose             000000018002693c     libucrt:fclose.obj
 0002:0000a960       $unwind$_commit            0000000180026960     libucrt:commit.obj
 0002:0000a960       $unwind$_close             0000000180026960     libucrt:close.obj
 0002:0000a968       $unwind$??$?RV<lambda_a37b2b86f63e897a80ea819b0eb08c01>@@AEAV<lambda_38ce7e780aa69e748d6df282ebc68efe>@@V<lambda_99fb1378e971ab6e7edea83e3a7a83a2>@@@?$__crt_seh_guarded_call@H@@QEAAH$$QEAV<lambda_a37b2b86f63e897a80ea819b0eb08c01>@@AEAV<lambda_38ce7e780aa69e748d6df282ebc68efe>@@$$QEAV<lambda_99fb1378e971ab6e7edea83e3a7a83a2>@@@Z 0000000180026968     libucrt:commit.obj
 0002:0000a98c       $unwind$__acrt_update_thread_locale_data 000000018002698c     libucrt:locale_refcounting.obj
 0002:0000a9b0       $unwind$__acrt_LCMapStringA 00000001800269b0     libucrt:lcmapstringa.obj
 0002:0000a9c0       $unwind$?__acrt_LCMapStringA_stat@@YAHPEAU__crt_locale_pointers@@PEB_WKPEBDHPEADHHH@Z 00000001800269c0     libucrt:lcmapstringa.obj
 0002:0000a9e8       $unwind$?__mbsrtowcs_utf8@__crt_mbstring@@YA_KPEA_WPEAPEBD_KPEAU_Mbstatet@@@Z 00000001800269e8     libucrt:mbrtowc.obj
 0002:0000aa00       $unwind$__acrt_fltout      0000000180026a00     libucrt:cfout.obj
 0002:0000aa20       $unwind$?divide@__crt_strtox@@YA_KAEAUbig_integer@1@AEBU21@@Z 0000000180026a20     libucrt:cfout.obj
 0002:0000aa38       $chain$0$?divide@__crt_strtox@@YA_KAEAUbig_integer@1@AEBU21@@Z 0000000180026a38     libucrt:cfout.obj
 0002:0000aa4c       $chain$1$?divide@__crt_strtox@@YA_KAEAUbig_integer@1@AEBU21@@Z 0000000180026a4c     libucrt:cfout.obj
 0002:0000aa5c       $unwind$__acrt_locale_free_monetary 0000000180026a5c     libucrt:initmon.obj
 0002:0000aa64       $unwind$__acrt_locale_free_time 0000000180026a64     libucrt:inittime.obj
 0002:0000aa74       $unwind$__acrt_GetStringTypeA 0000000180026a74     libucrt:getstringtypea.obj
 0002:0000aa9c       $unwind$qsort              0000000180026a9c     libucrt:qsort.obj
 0002:0000aab4       $chain$4$qsort             0000000180026ab4     libucrt:qsort.obj
 0002:0000aad8       $chain$5$qsort             0000000180026ad8     libucrt:qsort.obj
 0002:0000aae8       $unwind$strpbrk            0000000180026ae8     libucrt:strpbrk.obj
 0002:0000aaf8       $unwind$fallbackMethod     0000000180026af8     libucrt:strpbrk.obj
 0002:0000ab08       $unwind$_putwch_nolock     0000000180026b08     libucrt:putwch.obj
 0002:0000ab10       $unwind$??$?RV<lambda_751a882b2c74d4b022dec766aa51a29a>@@AEAV<lambda_628dfdc04ba53c8bfc02c9951375f3f5>@@V<lambda_f6c7be5f7998530c34de24c7437d6b54>@@@?$__crt_seh_guarded_call@H@@QEAAH$$QEAV<lambda_751a882b2c74d4b022dec766aa51a29a>@@AEAV<lambda_628dfdc04ba53c8bfc02c9951375f3f5>@@$$QEAV<lambda_f6c7be5f7998530c34de24c7437d6b54>@@@Z 0000000180026b10     libucrt:close.obj
 0002:0000ab34       $unwind$?__mbrtoc32_utf8@__crt_mbstring@@YA_KPEA_UPEBD_KPEAU_Mbstatet@@@Z 0000000180026b34     libucrt:mbrtoc32.obj
 0002:0000ab50       $xdatasym                  0000000180026b50     libucrt:log10.obj
 0002:0000ab5c       $unwind$__acrt_fenv_set_control 0000000180026b5c     libucrt:_fenvutils.obj
 0002:0000ab6c       $unwind$_call_matherr      0000000180026b6c     libucrt:libm_error.obj
 0002:0000ab74       $unwind$_handle_error      0000000180026b74     libucrt:libm_error.obj
 0002:0000ab74       $unwind$_handle_errorf     0000000180026b74     libucrt:libm_error.obj
 0002:0000ab94       $unwind$__acrt_initialize_fma3 0000000180026b94     libucrt:fma3_available.obj
 0002:0000ab9c       $unwind$_log_special_common 0000000180026b9c     libucrt:log_special.obj
 0002:0000aba8       $xdatasym                  0000000180026ba8     libucrt:fpsr.obj
 0002:0000abb0       $unwind$_raise_exc_ex      0000000180026bb0     libucrt:fpexcept.obj
 0002:0000abc4       $unwind$_ctrlfp            0000000180026bc4     libucrt:fpctrl.obj
 0002:0000abec       $unwind$?DloadObtainSection@@YAPEAXPEAK0@Z 0000000180026bec     DelayImp:delayhlp.obj
 0002:0000abfc       $unwind$?DloadMakePermanentImageCommit@@YAXPEAX_K@Z 0000000180026bfc     DelayImp:delayhlp.obj
 0002:0000ac08       $unwind$?DloadProtectSection@@YAXKPEAK@Z 0000000180026c08     DelayImp:delayhlp.obj
 0002:0000ac18       $unwind$__delayLoadHelper2 0000000180026c18     DelayImp:delayhlp.obj
 0002:0000ac30       $unwind$_IsNonwritableInCurrentImage 0000000180026c30     LIBCMT:pesect.obj
 0002:0000ac58       $xdatasym                  0000000180026c58     LIBCMT:chkstk.obj
 0002:0000ac60       $unwind$strrchr            0000000180026c60     libvcruntime:strrchr.obj
 0002:0000ac68       $xdatasym                  0000000180026c68     libvcruntime:memcmp.obj
 0002:0000ac6c       $unwind$acosf              0000000180026c6c     libucrt:acosf.obj
 0002:0000ac78       $xdatasym                  0000000180026c78     libucrt:cosf.obj
 0002:0000ac80       $xdatasym                  0000000180026c80     libucrt:sinf.obj
 0002:0000ac88       $unwind$sqrtf              0000000180026c88     libucrt:sqrtf.obj
 0002:0000ac90       $xdatasym                  0000000180026c90     libucrt:remainder_piby2f_forasm.obj
 0002:0000ac98       $xdatasym                  0000000180026c98     libucrt:remainder_piby2_forfma3.obj
 0002:0000aca4       $unwind$_sincosf_special   0000000180026ca4     libucrt:sincos_special.obj
 0002:0000acb0       $xdatasym                  0000000180026cb0     libucrt:remainder_piby2f_forc.obj
 0002:0000af80       .edata                     0000000180026f80     an.exp
 0002:0000afa8       rgpv                       0000000180026fa8     an.exp
 0002:0000afac       rgszName                   0000000180026fac     an.exp
 0002:0000afb0       rgwOrd                     0000000180026fb0     an.exp
 0002:0000afb2       szName                     0000000180026fb2     an.exp
 0002:0000afba       $N00001                    0000000180026fba     an.exp
 0002:0000b25c       .idata$6                   000000018002725c     kernel32:KERNEL32.dll
 0003:00000030       ?__vcrt_flsindex@@3KA      0000000180028030     libvcruntime:per_thread_data.obj
 0003:00000154       ?errno_no_memory@@3HA      0000000180028154     libucrt:errno.obj
 0003:00000158       ?doserrno_no_memory@@3KA   0000000180028158     libucrt:errno.obj
 0003:000001a8       ?__acrt_flsindex@@3KA      00000001800281a8     libucrt:per_thread_data.obj
 0003:00000320       _mbctypes                  0000000180028320     libucrt:mbctype.obj
 0003:00000430       _mbcasemaps                0000000180028430     libucrt:mbctype.obj
 0003:00000530       ?__rgctypeflag@@3PADA      0000000180028530     libucrt:mbctype.obj
 0003:00000540       ?__rgcode_page_info@@3PAUcode_page_info@@A 0000000180028540     libucrt:mbctype.obj
 0003:00000a10       ?__dcrt_lowio_console_output_handle@@3PEAXEA 0000000180028a10     libucrt:initcon.obj
 0003:00000a20       ?dazSupported@?1??_ctrlfp@@9@9 0000000180028a20     libucrt:fpctrl.obj
 0003:00000a50       _module                    0000000180028a50     node_module.obj
 0003:00000bd8       ?__proc_attached@@3HA      0000000180028bd8     LIBCMT:dll_dllmain.obj
 0003:00000be0       GS_ExceptionRecord         0000000180028be0     LIBCMT:gs_report.obj
 0003:00000c80       GS_ContextRecord           0000000180028c80     LIBCMT:gs_report.obj
 0003:00001178       ?is_initialized_as_dll@@3_NA 0000000180029178     LIBCMT:utility.obj
 0003:00001179       ?module_local_atexit_table_initialized@@3_NA 0000000180029179     LIBCMT:utility.obj
 0003:00001180       ?module_local_atexit_table@@3U_onexit_table_t@@A 0000000180029180     LIBCMT:utility.obj
 0003:00001198       ?module_local_at_quick_exit_table@@3U_onexit_table_t@@A 0000000180029198     LIBCMT:utility.obj
 0003:00001200       ?heap@@3V_HeapManager@@A   0000000180029200     libvcruntime:undname.obj
 0003:00001230       ?__vcrt_startup_thread_ptd@@3U__vcrt_ptd@@A 0000000180029230     libvcruntime:per_thread_data.obj
 0003:000012c0       __vcrt_lock_table          00000001800292c0     libvcruntime:locks.obj
 0003:000012e8       __vcrt_locks_initialized   00000001800292e8     libvcruntime:locks.obj
 0003:000012f0       ?module_handles@@3PAPEAUHINSTANCE__@@A 00000001800292f0     libvcruntime:winapi_downlevel.obj
 0003:00001308       ?encoded_function_pointers@@3PAPEAXA 0000000180029308     libvcruntime:winapi_downlevel.obj
 0003:00001350       ?__acrt_invalid_parameter_handler@@3V?$dual_state_global@P6AXPEB_W00I_K@Z@__crt_state_management@@A 0000000180029350     libucrt:invalid_parameter.obj
 0003:00001358       ?__acrt_new_handler@@3V?$dual_state_global@P6AH_K@Z@__crt_state_management@@A 0000000180029358     libucrt:new_handler.obj
 0003:00001360       ?c_termination_complete@@3JA 0000000180029360     libucrt:exit.obj
 0003:00001368       ?thread_local_exit_callback_func@@3P6AXPEAXK0@ZEA 0000000180029368     libucrt:exit.obj
 0003:00001380       ?program_name@?1???$common_configure_argv@D@@YAHW4_crt_argv_mode@@@Z@4PADA 0000000180029380     libucrt:argv_parsing.obj
 0003:000018f0       ?module_handles@@3PAPEAUHINSTANCE__@@A 00000001800298f0     libucrt:winapi_thunks.obj
 0003:00001990       ?encoded_function_pointers@@3PAPEAXA 0000000180029990     libucrt:winapi_thunks.obj
 0003:00001aa0       ?internal_state@?1??_mbtowc_l@@9@4U_Mbstatet@@A 0000000180029aa0     libucrt:mbtowc.obj
 0003:00001aa8       ?enable_percent_n@@3_KA    0000000180029aa8     libucrt:printf_count_output.obj
 0003:00001ad0       ?__acrt_app_type@@3W4_crt_app_type@@A 0000000180029ad0     libucrt:report_runtime_error.obj
 0003:00001ad4       __acrt_error_mode          0000000180029ad4     libucrt:set_error_mode.obj
 0003:00001ad8       ?ctrlc_action@@3V?$dual_state_global@P6AXH@Z@__crt_state_management@@A 0000000180029ad8     libucrt:signal.obj
 0003:00001ae0       ?ctrlbreak_action@@3V?$dual_state_global@P6AXH@Z@__crt_state_management@@A 0000000180029ae0     libucrt:signal.obj
 0003:00001ae8       ?abort_action@@3V?$dual_state_global@P6AXH@Z@__crt_state_management@@A 0000000180029ae8     libucrt:signal.obj
 0003:00001af0       ?term_action@@3V?$dual_state_global@P6AXH@Z@__crt_state_management@@A 0000000180029af0     libucrt:signal.obj
 0003:00001b00       ?__acrt_lock_table@@3PAU_RTL_CRITICAL_SECTION@@A 0000000180029b00     libucrt:locks.obj
 0003:00001d30       ?__acrt_locks_initialized@@3IA 0000000180029d30     libucrt:locks.obj
 0003:00001d34       ?state_cache@?1???$get_cached_win_policy@Udeveloper_information_policy_properties@?1??__acrt_get_developer_information_policy@@YA?AW4developer_information_policy@@XZ@@@YA?AW4developer_information_policy@@W4AppPolicyShowDeveloperDiagnostic@@@Z@4JA 0000000180029d34     libucrt:win_policies.obj
 0003:00001d38       ?state_cache@?1???$get_cached_win_policy@Uwindowing_model_policy_properties@?1??__acrt_get_windowing_model_policy@@YA?AW4windowing_model_policy@@XZ@@@YA?AW4windowing_model_policy@@W4AppPolicyWindowingModel@@@Z@4JA 0000000180029d38     libucrt:win_policies.obj
 0003:00001d58       ?fSystemSet@@3HA           0000000180029d58     libucrt:mbctype.obj
 0003:00001d5c       ?initialized@?1??__acrt_initialize_multibyte@@9@4_NA 0000000180029d5c     libucrt:mbctype.obj
 0003:00001d98       ?user_matherr@@3V?$dual_state_global@P6AHPEAU_exception@@@Z@__crt_state_management@@A 0000000180029d98     libucrt:matherr.obj
 0003:00001da0       ?__acrt_global_new_mode@@3V?$dual_state_global@J@__crt_state_management@@A 0000000180029da0     libucrt:new_mode.obj
 0003:00001db0       ?internal_pst@?1??__mbrtoc32_utf8@__crt_mbstring@@YA_KPEA_UPEBD_KPEAU_Mbstatet@@@Z@4U3@A 0000000180029db0     libucrt:mbrtoc32.obj
 0004:00000000       $pdata$??__EWorldMatrix@@YAXXZ 00000001815c8000     node_module.obj
 0004:0000000c       $pdata$?turn_toward@@YA?AU?$tquat@M$0A@@glm@@U12@U?$tvec3@M$0A@@2@@Z 00000001815c800c     node_module.obj
 0004:00000018       $pdata$?reset@Agent@@QEAAXH@Z 00000001815c8018     node_module.obj
 0004:00000024       $pdata$?init@Shared@@QEAAXXZ 00000001815c8024     node_module.obj
 0004:00000030       $pdata$?main_update@Shared@@QEAAXM@Z 00000001815c8030     node_module.obj
 0004:0000003c       $pdata$6$?main_update@Shared@@QEAAXM@Z 00000001815c803c     node_module.obj
 0004:00000048       $pdata$7$?main_update@Shared@@QEAAXM@Z 00000001815c8048     node_module.obj
 0004:00000054       $pdata$?simulation_update@Shared@@QEAAXN@Z 00000001815c8054     node_module.obj
 0004:00000060       $pdata$16$?simulation_update@Shared@@QEAAXN@Z 00000001815c8060     node_module.obj
 0004:0000006c       $pdata$17$?simulation_update@Shared@@QEAAXN@Z 00000001815c806c     node_module.obj
 0004:00000078       $pdata$18$?simulation_update@Shared@@QEAAXN@Z 00000001815c8078     node_module.obj
 0004:00000084       $pdata$?node_init@@YAPEAUnapi_value__@@PEAUnapi_env__@@PEAUnapi_callback_info__@@@Z 00000001815c8084     node_module.obj
 0004:00000090       $pdata$?node_update@@YAPEAUnapi_value__@@PEAUnapi_env__@@PEAUnapi_callback_info__@@@Z 00000001815c8090     node_module.obj
 0004:0000009c       $pdata$?Init@@YAPEAUnapi_value__@@PEAUnapi_env__@@PEAU1@@Z 00000001815c809c     node_module.obj
 0004:000000a8       $pdata$?move@?$Hashspace@$0BAAA@$04@@QEAAXIU?$tvec3@M$0A@@glm@@@Z 00000001815c80a8     node_module.obj
 0004:000000b4       $pdata$?query@?$Hashspace@$0BAAA@$04@@QEAAHAEAV?$vector@HV?$allocator@H@std@@@std@@HU?$tvec3@M$0A@@glm@@HMM@Z 00000001815c80b4     node_module.obj
 0004:000000c0       $pdata$2$?query@?$Hashspace@$0BAAA@$04@@QEAAHAEAV?$vector@HV?$allocator@H@std@@@std@@HU?$tvec3@M$0A@@glm@@HMM@Z 00000001815c80c0     node_module.obj
 0004:000000cc       $pdata$6$?query@?$Hashspace@$0BAAA@$04@@QEAAHAEAV?$vector@HV?$allocator@H@std@@@std@@HU?$tvec3@M$0A@@glm@@HMM@Z 00000001815c80cc     node_module.obj
 0004:000000d8       $pdata$3$?query@?$Hashspace@$0BAAA@$04@@QEAAHAEAV?$vector@HV?$allocator@H@std@@@std@@HU?$tvec3@M$0A@@glm@@HMM@Z 00000001815c80d8     node_module.obj
 0004:000000e4       $pdata$?reset@?$Hashspace@$0BAAA@$04@@QEAAAEAU1@U?$tvec3@M$0A@@glm@@0@Z 00000001815c80e4     node_module.obj
 0004:000000f0       $pdata$1$?reset@?$Hashspace@$0BAAA@$04@@QEAAAEAU1@U?$tvec3@M$0A@@glm@@0@Z 00000001815c80f0     node_module.obj
 0004:000000fc       $pdata$9$?reset@?$Hashspace@$0BAAA@$04@@QEAAAEAU1@U?$tvec3@M$0A@@glm@@0@Z 00000001815c80fc     node_module.obj
 0004:00000108       $pdata$10$?reset@?$Hashspace@$0BAAA@$04@@QEAAAEAU1@U?$tvec3@M$0A@@glm@@0@Z 00000001815c8108     node_module.obj
 0004:00000114       $pdata$11$?reset@?$Hashspace@$0BAAA@$04@@QEAAAEAU1@U?$tvec3@M$0A@@glm@@0@Z 00000001815c8114     node_module.obj
 0004:00000120       $pdata$12$?reset@?$Hashspace@$0BAAA@$04@@QEAAAEAU1@U?$tvec3@M$0A@@glm@@0@Z 00000001815c8120     node_module.obj
 0004:0000012c       $pdata$?splat@?$Array3DSized@U?$tvec4@M$0A@@glm@@$0EA@$0EA@$0EA@@@QEAAAEAU1@U?$tvec4@M$0A@@glm@@U?$tvec3@M$0A@@3@@Z 00000001815c812c     node_module.obj
 0004:00000138       $pdata$?sample@?$Array2DSized@U?$tvec3@M$0A@@glm@@$0HP@$0HP@@@QEAA?AU?$tvec3@M$0A@@glm@@U?$tvec2@M$0A@@3@@Z 00000001815c8138     node_module.obj
 0004:00000144       $pdata$??$?DM$0A@@glm@@YA?AU?$tmat4x4@M$0A@@0@AEBU10@0@Z 00000001815c8144     node_module.obj
 0004:00000150       $pdata$??$_Resize@V<lambda_7c1f8801e9057f59bf0e89d8a2ca440c>@@@?$vector@V?$vector@UShellData@?1??reset@?$Hashspace@$0BAAA@$04@@QEAAAEAU3@U?$tvec3@M$0A@@glm@@0@Z@V?$allocator@UShellData@?1??reset@?$Hashspace@$0BAAA@$04@@QEAAAEAU3@U?$tvec3@M$0A@@glm@@0@Z@@std@@@std@@V?$allocator@V?$vector@UShellData@?1??reset@?$Hashspace@$0BAAA@$04@@QEAAAEAU3@U?$tvec3@M$0A@@glm@@0@Z@V?$allocator@UShellData@?1??reset@?$Hashspace@$0BAAA@$04@@QEAAAEAU3@U?$tvec3@M$0A@@glm@@0@Z@@std@@@std@@@2@@std@@AEAAX_KV<lambda_7c1f8801e9057f59bf0e89d8a2ca440c>@@@Z 00000001815c8150     node_module.obj
 0004:0000015c       $pdata$0$??$_Resize@V<lambda_7c1f8801e9057f59bf0e89d8a2ca440c>@@@?$vector@V?$vector@UShellData@?1??reset@?$Hashspace@$0BAAA@$04@@QEAAAEAU3@U?$tvec3@M$0A@@glm@@0@Z@V?$allocator@UShellData@?1??reset@?$Hashspace@$0BAAA@$04@@QEAAAEAU3@U?$tvec3@M$0A@@glm@@0@Z@@std@@@std@@V?$allocator@V?$vector@UShellData@?1??reset@?$Hashspace@$0BAAA@$04@@QEAAAEAU3@U?$tvec3@M$0A@@glm@@0@Z@V?$allocator@UShellData@?1??reset@?$Hashspace@$0BAAA@$04@@QEAAAEAU3@U?$tvec3@M$0A@@glm@@0@Z@@std@@@std@@@2@@std@@AEAAX_KV<lambda_7c1f8801e9057f59bf0e89d8a2ca440c>@@@Z 00000001815c815c     node_module.obj
 0004:00000168       $pdata$1$??$_Resize@V<lambda_7c1f8801e9057f59bf0e89d8a2ca440c>@@@?$vector@V?$vector@UShellData@?1??reset@?$Hashspace@$0BAAA@$04@@QEAAAEAU3@U?$tvec3@M$0A@@glm@@0@Z@V?$allocator@UShellData@?1??reset@?$Hashspace@$0BAAA@$04@@QEAAAEAU3@U?$tvec3@M$0A@@glm@@0@Z@@std@@@std@@V?$allocator@V?$vector@UShellData@?1??reset@?$Hashspace@$0BAAA@$04@@QEAAAEAU3@U?$tvec3@M$0A@@glm@@0@Z@V?$allocator@UShellData@?1??reset@?$Hashspace@$0BAAA@$04@@QEAAAEAU3@U?$tvec3@M$0A@@glm@@0@Z@@std@@@std@@@2@@std@@AEAAX_KV<lambda_7c1f8801e9057f59bf0e89d8a2ca440c>@@@Z 00000001815c8168     node_module.obj
 0004:00000174       $pdata$2$??$_Resize@V<lambda_7c1f8801e9057f59bf0e89d8a2ca440c>@@@?$vector@V?$vector@UShellData@?1??reset@?$Hashspace@$0BAAA@$04@@QEAAAEAU3@U?$tvec3@M$0A@@glm@@0@Z@V?$allocator@UShellData@?1??reset@?$Hashspace@$0BAAA@$04@@QEAAAEAU3@U?$tvec3@M$0A@@glm@@0@Z@@std@@@std@@V?$allocator@V?$vector@UShellData@?1??reset@?$Hashspace@$0BAAA@$04@@QEAAAEAU3@U?$tvec3@M$0A@@glm@@0@Z@V?$allocator@UShellData@?1??reset@?$Hashspace@$0BAAA@$04@@QEAAAEAU3@U?$tvec3@M$0A@@glm@@0@Z@@std@@@std@@@2@@std@@AEAAX_KV<lambda_7c1f8801e9057f59bf0e89d8a2ca440c>@@@Z 00000001815c8174     node_module.obj
 0004:00000180       $pdata$3$??$_Resize@V<lambda_7c1f8801e9057f59bf0e89d8a2ca440c>@@@?$vector@V?$vector@UShellData@?1??reset@?$Hashspace@$0BAAA@$04@@QEAAAEAU3@U?$tvec3@M$0A@@glm@@0@Z@V?$allocator@UShellData@?1??reset@?$Hashspace@$0BAAA@$04@@QEAAAEAU3@U?$tvec3@M$0A@@glm@@0@Z@@std@@@std@@V?$allocator@V?$vector@UShellData@?1??reset@?$Hashspace@$0BAAA@$04@@QEAAAEAU3@U?$tvec3@M$0A@@glm@@0@Z@V?$allocator@UShellData@?1??reset@?$Hashspace@$0BAAA@$04@@QEAAAEAU3@U?$tvec3@M$0A@@glm@@0@Z@@std@@@std@@@2@@std@@AEAAX_KV<lambda_7c1f8801e9057f59bf0e89d8a2ca440c>@@@Z 00000001815c8180     node_module.obj
 0004:0000018c       $pdata$??$_Emplace_reallocate@UShellData@?1??reset@?$Hashspace@$0BAAA@$04@@QEAAAEAU3@U?$tvec3@M$0A@@glm@@0@Z@@?$vector@UShellData@?1??reset@?$Hashspace@$0BAAA@$04@@QEAAAEAU3@U?$tvec3@M$0A@@glm@@0@Z@V?$allocator@UShellData@?1??reset@?$Hashspace@$0BAAA@$04@@QEAAAEAU3@U?$tvec3@M$0A@@glm@@0@Z@@std@@@std@@QEAAPEAUShellData@?1??reset@?$Hashspace@$0BAAA@$04@@QEAAAEAU4@U?$tvec3@M$0A@@glm@@0@Z@QEAU2?1??34@QEAAAEAU4@00@Z@$$QEAU2?1??34@QEAAAEAU4@00@Z@@Z 00000001815c818c     node_module.obj
 0004:00000198       $pdata$2$??$_Emplace_reallocate@UShellData@?1??reset@?$Hashspace@$0BAAA@$04@@QEAAAEAU3@U?$tvec3@M$0A@@glm@@0@Z@@?$vector@UShellData@?1??reset@?$Hashspace@$0BAAA@$04@@QEAAAEAU3@U?$tvec3@M$0A@@glm@@0@Z@V?$allocator@UShellData@?1??reset@?$Hashspace@$0BAAA@$04@@QEAAAEAU3@U?$tvec3@M$0A@@glm@@0@Z@@std@@@std@@QEAAPEAUShellData@?1??reset@?$Hashspace@$0BAAA@$04@@QEAAAEAU4@U?$tvec3@M$0A@@glm@@0@Z@QEAU2?1??34@QEAAAEAU4@00@Z@$$QEAU2?1??34@QEAAAEAU4@00@Z@@Z 00000001815c8198     node_module.obj
 0004:000001a4       $pdata$3$??$_Emplace_reallocate@UShellData@?1??reset@?$Hashspace@$0BAAA@$04@@QEAAAEAU3@U?$tvec3@M$0A@@glm@@0@Z@@?$vector@UShellData@?1??reset@?$Hashspace@$0BAAA@$04@@QEAAAEAU3@U?$tvec3@M$0A@@glm@@0@Z@V?$allocator@UShellData@?1??reset@?$Hashspace@$0BAAA@$04@@QEAAAEAU3@U?$tvec3@M$0A@@glm@@0@Z@@std@@@std@@QEAAPEAUShellData@?1??reset@?$Hashspace@$0BAAA@$04@@QEAAAEAU4@U?$tvec3@M$0A@@glm@@0@Z@QEAU2?1??34@QEAAAEAU4@00@Z@$$QEAU2?1??34@QEAAAEAU4@00@Z@@Z 00000001815c81a4     node_module.obj
 0004:000001b0       $pdata$4$??$_Emplace_reallocate@UShellData@?1??reset@?$Hashspace@$0BAAA@$04@@QEAAAEAU3@U?$tvec3@M$0A@@glm@@0@Z@@?$vector@UShellData@?1??reset@?$Hashspace@$0BAAA@$04@@QEAAAEAU3@U?$tvec3@M$0A@@glm@@0@Z@V?$allocator@UShellData@?1??reset@?$Hashspace@$0BAAA@$04@@QEAAAEAU3@U?$tvec3@M$0A@@glm@@0@Z@@std@@@std@@QEAAPEAUShellData@?1??reset@?$Hashspace@$0BAAA@$04@@QEAAAEAU4@U?$tvec3@M$0A@@glm@@0@Z@QEAU2?1??34@QEAAAEAU4@00@Z@$$QEAU2?1??34@QEAAAEAU4@00@Z@@Z 00000001815c81b0     node_module.obj
 0004:000001bc       $pdata$??$_Emplace_reallocate@AEBH@?$vector@HV?$allocator@H@std@@@std@@QEAAPEAHQEAHAEBH@Z 00000001815c81bc     node_module.obj
 0004:000001c8       $pdata$3$??$_Emplace_reallocate@AEBH@?$vector@HV?$allocator@H@std@@@std@@QEAAPEAHQEAHAEBH@Z 00000001815c81c8     node_module.obj
 0004:000001d4       $pdata$5$??$_Emplace_reallocate@AEBH@?$vector@HV?$allocator@H@std@@@std@@QEAAPEAHQEAHAEBH@Z 00000001815c81d4     node_module.obj
 0004:000001e0       $pdata$6$??$_Emplace_reallocate@AEBH@?$vector@HV?$allocator@H@std@@@std@@QEAAPEAHQEAHAEBH@Z 00000001815c81e0     node_module.obj
 0004:000001ec       $pdata$??$_Destroy_range@V?$allocator@V?$vector@UShellData@?1??reset@?$Hashspace@$0BAAA@$04@@QEAAAEAU3@U?$tvec3@M$0A@@glm@@0@Z@V?$allocator@UShellData@?1??reset@?$Hashspace@$0BAAA@$04@@QEAAAEAU3@U?$tvec3@M$0A@@glm@@0@Z@@std@@@std@@@std@@@std@@YAXPEAV?$vector@UShellData@?1??reset@?$Hashspace@$0BAAA@$04@@QEAAAEAU3@U?$tvec3@M$0A@@glm@@0@Z@V?$allocator@UShellData@?1??reset@?$Hashspace@$0BAAA@$04@@QEAAAEAU3@U?$tvec3@M$0A@@glm@@0@Z@@std@@@0@0AEAV?$allocator@V?$vector@UShellData@?1??reset@?$Hashspace@$0BAAA@$04@@QEAAAEAU3@U?$tvec3@M$0A@@glm@@0@Z@V?$allocator@UShellData@?1??reset@?$Hashspace@$0BAAA@$04@@QEAAAEAU3@U?$tvec3@M$0A@@glm@@0@Z@@std@@@std@@@0@@Z 00000001815c81ec     node_module.obj
 0004:000001f8       $pdata$0$??$_Destroy_range@V?$allocator@V?$vector@UShellData@?1??reset@?$Hashspace@$0BAAA@$04@@QEAAAEAU3@U?$tvec3@M$0A@@glm@@0@Z@V?$allocator@UShellData@?1??reset@?$Hashspace@$0BAAA@$04@@QEAAAEAU3@U?$tvec3@M$0A@@glm@@0@Z@@std@@@std@@@std@@@std@@YAXPEAV?$vector@UShellData@?1??reset@?$Hashspace@$0BAAA@$04@@QEAAAEAU3@U?$tvec3@M$0A@@glm@@0@Z@V?$allocator@UShellData@?1??reset@?$Hashspace@$0BAAA@$04@@QEAAAEAU3@U?$tvec3@M$0A@@glm@@0@Z@@std@@@0@0AEAV?$allocator@V?$vector@UShellData@?1??reset@?$Hashspace@$0BAAA@$04@@QEAAAEAU3@U?$tvec3@M$0A@@glm@@0@Z@V?$allocator@UShellData@?1??reset@?$Hashspace@$0BAAA@$04@@QEAAAEAU3@U?$tvec3@M$0A@@glm@@0@Z@@std@@@std@@@0@@Z 00000001815c81f8     node_module.obj
 0004:00000204       $pdata$1$??$_Destroy_range@V?$allocator@V?$vector@UShellData@?1??reset@?$Hashspace@$0BAAA@$04@@QEAAAEAU3@U?$tvec3@M$0A@@glm@@0@Z@V?$allocator@UShellData@?1??reset@?$Hashspace@$0BAAA@$04@@QEAAAEAU3@U?$tvec3@M$0A@@glm@@0@Z@@std@@@std@@@std@@@std@@YAXPEAV?$vector@UShellData@?1??reset@?$Hashspace@$0BAAA@$04@@QEAAAEAU3@U?$tvec3@M$0A@@glm@@0@Z@V?$allocator@UShellData@?1??reset@?$Hashspace@$0BAAA@$04@@QEAAAEAU3@U?$tvec3@M$0A@@glm@@0@Z@@std@@@0@0AEAV?$allocator@V?$vector@UShellData@?1??reset@?$Hashspace@$0BAAA@$04@@QEAAAEAU3@U?$tvec3@M$0A@@glm@@0@Z@V?$allocator@UShellData@?1??reset@?$Hashspace@$0BAAA@$04@@QEAAAEAU3@U?$tvec3@M$0A@@glm@@0@Z@@std@@@std@@@0@@Z 00000001815c8204     node_module.obj
 0004:00000210       $pdata$2$??$_Destroy_range@V?$allocator@V?$vector@UShellData@?1??reset@?$Hashspace@$0BAAA@$04@@QEAAAEAU3@U?$tvec3@M$0A@@glm@@0@Z@V?$allocator@UShellData@?1??reset@?$Hashspace@$0BAAA@$04@@QEAAAEAU3@U?$tvec3@M$0A@@glm@@0@Z@@std@@@std@@@std@@@std@@YAXPEAV?$vector@UShellData@?1??reset@?$Hashspace@$0BAAA@$04@@QEAAAEAU3@U?$tvec3@M$0A@@glm@@0@Z@V?$allocator@UShellData@?1??reset@?$Hashspace@$0BAAA@$04@@QEAAAEAU3@U?$tvec3@M$0A@@glm@@0@Z@@std@@@0@0AEAV?$allocator@V?$vector@UShellData@?1??reset@?$Hashspace@$0BAAA@$04@@QEAAAEAU3@U?$tvec3@M$0A@@glm@@0@Z@V?$allocator@UShellData@?1??reset@?$Hashspace@$0BAAA@$04@@QEAAAEAU3@U?$tvec3@M$0A@@glm@@0@Z@@std@@@std@@@0@@Z 00000001815c8210     node_module.obj
 0004:0000021c       $pdata$?_Xlength@?$vector@V?$vector@UShellData@?1??reset@?$Hashspace@$0BAAA@$04@@QEAAAEAU3@U?$tvec3@M$0A@@glm@@0@Z@V?$allocator@UShellData@?1??reset@?$Hashspace@$0BAAA@$04@@QEAAAEAU3@U?$tvec3@M$0A@@glm@@0@Z@@std@@@std@@V?$allocator@V?$vector@UShellData@?1??reset@?$Hashspace@$0BAAA@$04@@QEAAAEAU3@U?$tvec3@M$0A@@glm@@0@Z@V?$allocator@UShellData@?1??reset@?$Hashspace@$0BAAA@$04@@QEAAAEAU3@U?$tvec3@M$0A@@glm@@0@Z@@std@@@std@@@2@@std@@CAXXZ 00000001815c821c     node_module.obj
 0004:0000021c       $pdata$?_Xlength@?$vector@HV?$allocator@H@std@@@std@@CAXXZ 00000001815c821c     node_module.obj
 0004:0000021c       $pdata$?_Xlength@?$vector@UShellData@?1??reset@?$Hashspace@$0BAAA@$04@@QEAAAEAU3@U?$tvec3@M$0A@@glm@@0@Z@V?$allocator@UShellData@?1??reset@?$Hashspace@$0BAAA@$04@@QEAAAEAU3@U?$tvec3@M$0A@@glm@@0@Z@@std@@@std@@CAXXZ 00000001815c821c     node_module.obj
 0004:00000228       $pdata$?call@?$compute_rand@I$0A@Utvec1@glm@@@detail@glm@@SA?AU?$tvec1@I$0A@@3@XZ 00000001815c8228     node_module.obj
 0004:00000234       $pdata$?call@?$compute_rand@G$0A@Utvec4@glm@@@detail@glm@@SA?AU?$tvec4@G$0A@@3@XZ 00000001815c8234     node_module.obj
 0004:00000240       $pdata$?call@?$compute_rand@G$0A@Utvec3@glm@@@detail@glm@@SA?AU?$tvec3@G$0A@@3@XZ 00000001815c8240     node_module.obj
 0004:0000024c       $pdata$??$compute_inverse@M$0A@@detail@glm@@YA?AU?$tmat4x4@M$0A@@1@AEBU21@@Z 00000001815c824c     node_module.obj
 0004:00000258       $pdata$?load_exe_hook@@YAP6A_JXZIPEAUDelayLoadInfo@@@Z 00000001815c8258     win_delay_load_hook.obj
 0004:00000270       $pdata$??0bad_alloc@std@@QEAA@AEBV01@@Z 00000001815c8270     libcpmt:xthrow.obj
 0004:0000027c       $pdata$??0exception@std@@QEAA@AEBV01@@Z 00000001815c827c     libcpmt:xthrow.obj
 0004:00000288       $pdata$??0length_error@std@@QEAA@AEBV01@@Z 00000001815c8288     libcpmt:xthrow.obj
 0004:00000294       $pdata$??0length_error@std@@QEAA@PEBD@Z 00000001815c8294     libcpmt:xthrow.obj
 0004:000002a0       $pdata$??0logic_error@std@@QEAA@AEBV01@@Z 00000001815c82a0     libcpmt:xthrow.obj
 0004:000002ac       $pdata$??_Gbad_alloc@std@@UEAAPEAXI@Z 00000001815c82ac     libcpmt:xthrow.obj
 0004:000002ac       $pdata$??_Glogic_error@std@@UEAAPEAXI@Z 00000001815c82ac     libcpmt:xthrow.obj
 0004:000002ac       $pdata$??_Glength_error@std@@UEAAPEAXI@Z 00000001815c82ac     libcpmt:xthrow.obj
 0004:000002ac       $pdata$??_Gexception@std@@UEAAPEAXI@Z 00000001815c82ac     libcpmt:xthrow.obj
 0004:000002ac       $pdata$??_Gbad_array_new_length@std@@UEAAPEAXI@Z 00000001815c82ac     LIBCMT:throw_bad_alloc.obj
 0004:000002b8       $pdata$?_Xlength_error@std@@YAXPEBD@Z 00000001815c82b8     libcpmt:xthrow.obj
 0004:000002d0       $pdata$??2@YAPEAX_K@Z      00000001815c82d0     LIBCMT:new_scalar.obj
 0004:000002dc       $pdata$?dllmain_crt_dispatch@@YAHQEAUHINSTANCE__@@KQEAX@Z 00000001815c82dc     LIBCMT:dll_dllmain.obj
 0004:000002e8       $pdata$?dllmain_crt_process_attach@@YAHQEAUHINSTANCE__@@QEAX@Z 00000001815c82e8     LIBCMT:dll_dllmain.obj
 0004:000002f4       $pdata$?dllmain_crt_process_detach@@YAH_N@Z 00000001815c82f4     LIBCMT:dll_dllmain.obj
 0004:00000300       $pdata$?dllmain_dispatch@@YAHQEAUHINSTANCE__@@KQEAX@Z 00000001815c8300     LIBCMT:dll_dllmain.obj
 0004:0000030c       $pdata$_DllMainCRTStartup  00000001815c830c     LIBCMT:dll_dllmain.obj
 0004:00000318       $pdata$??_Gtype_info@@UEAAPEAXI@Z 00000001815c8318     LIBCMT:std_type_info_static.obj
 0004:00000324       $pdata$__raise_securityfailure 00000001815c8324     LIBCMT:gs_report.obj
 0004:00000330       $pdata$__report_gsfailure  00000001815c8330     LIBCMT:gs_report.obj
 0004:0000033c       $pdata$__report_rangecheckfailure 00000001815c833c     LIBCMT:gs_report.obj
 0004:00000348       $pdata$__report_securityfailure 00000001815c8348     LIBCMT:gs_report.obj
 0004:00000354       $pdata$capture_current_context 00000001815c8354     LIBCMT:gs_report.obj
 0004:00000360       $pdata$capture_previous_context 00000001815c8360     LIBCMT:gs_report.obj
 0004:0000036c       $pdata$??0bad_array_new_length@std@@QEAA@AEBV01@@Z 00000001815c836c     LIBCMT:throw_bad_alloc.obj
 0004:00000378       $pdata$?__scrt_throw_std_bad_alloc@@YAXXZ 00000001815c8378     LIBCMT:throw_bad_alloc.obj
 0004:00000384       $pdata$?__scrt_throw_std_bad_array_new_length@@YAXXZ 00000001815c8384     LIBCMT:throw_bad_alloc.obj
 0004:00000390       $pdata$__security_init_cookie 00000001815c8390     LIBCMT:gs_support.obj
 0004:0000039c       $pdata$__scrt_initialize_default_local_stdio_options 00000001815c839c     LIBCMT:default_local_stdio_options.obj
 0004:000003a8       $pdata$__scrt_acquire_startup_lock 00000001815c83a8     LIBCMT:utility.obj
 0004:000003b4       $pdata$__scrt_dllmain_after_initialize_c 00000001815c83b4     LIBCMT:utility.obj
 0004:000003c0       $pdata$__scrt_dllmain_before_initialize_c 00000001815c83c0     LIBCMT:utility.obj
 0004:000003cc       $pdata$__scrt_dllmain_crt_thread_attach 00000001815c83cc     LIBCMT:utility.obj
 0004:000003d8       $pdata$__scrt_dllmain_crt_thread_detach 00000001815c83d8     LIBCMT:utility.obj
 0004:000003e4       $pdata$__scrt_dllmain_exception_filter 00000001815c83e4     LIBCMT:utility.obj
 0004:000003f0       $pdata$__scrt_dllmain_uninitialize_c 00000001815c83f0     LIBCMT:utility.obj
 0004:000003fc       $pdata$__scrt_dllmain_uninitialize_critical 00000001815c83fc     LIBCMT:utility.obj
 0004:00000408       $pdata$__scrt_initialize_crt 00000001815c8408     LIBCMT:utility.obj
 0004:00000414       $pdata$__scrt_initialize_onexit_tables 00000001815c8414     LIBCMT:utility.obj
 0004:00000420       $pdata$__scrt_is_nonwritable_in_current_image 00000001815c8420     LIBCMT:utility.obj
 0004:0000042c       $pdata$__scrt_release_startup_lock 00000001815c842c     LIBCMT:utility.obj
 0004:00000438       $pdata$__scrt_uninitialize_crt 00000001815c8438     LIBCMT:utility.obj
 0004:00000444       $pdata$__scrt_fastfail     00000001815c8444     LIBCMT:utility_desktop.obj
 0004:00000450       $pdata$_RTC_Initialize     00000001815c8450     LIBCMT:initsect.obj
 0004:0000045c       $pdata$_RTC_Terminate      00000001815c845c     LIBCMT:initsect.obj
 0004:00000468       $pdata$__isa_available_init 00000001815c8468     LIBCMT:cpu_disp.obj
 0004:00000474       $pdata$__std_exception_copy 00000001815c8474     libvcruntime:std_exception.obj
 0004:00000480       $pdata$__std_exception_destroy 00000001815c8480     libvcruntime:std_exception.obj
 0004:0000048c       $pdata$_CxxThrowException  00000001815c848c     libvcruntime:throw.obj
 0004:00000498       $pdata$__C_specific_handler 00000001815c8498     libvcruntime:riscchandler.obj
 0004:000004a4       $pdata$__std_type_info_destroy_list 00000001815c84a4     libvcruntime:std_type_info.obj
 0004:000004b0       $pdata$__vcrt_initialize   00000001815c84b0     libvcruntime:initialization.obj
 0004:000004bc       $pdata$__vcrt_thread_attach 00000001815c84bc     libvcruntime:initialization.obj
 0004:000004c8       $pdata$__vcrt_thread_detach 00000001815c84c8     libvcruntime:initialization.obj
 0004:000004d4       $pdata$__vcrt_uninitialize 00000001815c84d4     libvcruntime:initialization.obj
 0004:000004e0       $pdata$__vcrt_uninitialize_critical 00000001815c84e0     libvcruntime:initialization.obj
 0004:00000528       $pdata$__DestructExceptionObject 00000001815c8528     libvcruntime:ehhelpers.obj
 0004:00000534       $pdata$__vcrt_freefls      00000001815c8534     libvcruntime:per_thread_data.obj
 0004:00000540       $pdata$__vcrt_freeptd      00000001815c8540     libvcruntime:per_thread_data.obj
 0004:0000054c       $pdata$__vcrt_getptd_noexit 00000001815c854c     libvcruntime:per_thread_data.obj
 0004:00000558       $pdata$__vcrt_initialize_ptd 00000001815c8558     libvcruntime:per_thread_data.obj
 0004:00000564       $pdata$__vcrt_uninitialize_ptd 00000001815c8564     libvcruntime:per_thread_data.obj
 0004:00000570       $pdata$__vcrt_initialize_locks 00000001815c8570     libvcruntime:locks.obj
 0004:0000057c       $pdata$__vcrt_uninitialize_locks 00000001815c857c     libvcruntime:locks.obj
 0004:00000588       $pdata$?try_get_function@@YAPEAXW4function_id@?A0xbfd18cd1@@QEBDQEBW4module_id@2@2@Z 00000001815c8588     libvcruntime:winapi_downlevel.obj
 0004:00000594       $pdata$__vcrt_FlsAlloc     00000001815c8594     libvcruntime:winapi_downlevel.obj
 0004:000005a0       $pdata$__vcrt_FlsFree      00000001815c85a0     libvcruntime:winapi_downlevel.obj
 0004:000005ac       $pdata$__vcrt_FlsGetValue  00000001815c85ac     libvcruntime:winapi_downlevel.obj
 0004:000005b8       $pdata$__vcrt_FlsSetValue  00000001815c85b8     libvcruntime:winapi_downlevel.obj
 0004:000005c4       $pdata$__vcrt_InitializeCriticalSectionEx 00000001815c85c4     libvcruntime:winapi_downlevel.obj
 0004:000005d0       $pdata$__vcrt_initialize_winapi_thunks 00000001815c85d0     libvcruntime:winapi_downlevel.obj
 0004:000005dc       $pdata$__vcrt_uninitialize_winapi_thunks 00000001815c85dc     libvcruntime:winapi_downlevel.obj
 0004:00000618       $pdata$__acrt_initialize_stdio 00000001815c8618     libucrt:_file.obj
 0004:00000624       $pdata$__acrt_uninitialize_stdio 00000001815c8624     libucrt:_file.obj
 0004:00000630       $pdata$rand                00000001815c8630     libucrt:rand.obj
 0004:0000063c       $pdata$??$?RV<lambda_0d412022a4b28cc8a401ea49574e8ae6>@@AEAV<lambda_a775ed57af18ba8e4d5dc780aa9068fe>@@V<lambda_975a71a6baa488a08f4e15f6b0339b9e>@@@?$__crt_seh_guarded_call@H@@QEAAH$$QEAV<lambda_0d412022a4b28cc8a401ea49574e8ae6>@@AEAV<lambda_a775ed57af18ba8e4d5dc780aa9068fe>@@$$QEAV<lambda_975a71a6baa488a08f4e15f6b0339b9e>@@@Z 00000001815c863c     libucrt:output.obj
 0004:00000648       $pdata$??$common_vsprintf@Vstandard_base@__crt_stdio_output@@_W@@YAH_KQEA_W0QEB_WQEAU__crt_locale_pointers@@QEAD@Z 00000001815c8648     libucrt:output.obj
 0004:00000654       $pdata$??$ensure_buffer_is_big_enough@D@formatting_buffer@__crt_stdio_output@@QEAA_N_K@Z 00000001815c8654     libucrt:output.obj
 0004:00000660       $pdata$??$ensure_buffer_is_big_enough@_W@formatting_buffer@__crt_stdio_output@@QEAA_N_K@Z 00000001815c8660     libucrt:output.obj
 0004:0000066c       $pdata$??$type_case_integer_parse_into_buffer@I@?$output_processor@_WV?$string_output_adapter@_W@__crt_stdio_output@@V?$standard_base@_WV?$string_output_adapter@_W@__crt_stdio_output@@@2@@__crt_stdio_output@@AEAAXII_N@Z 00000001815c866c     libucrt:output.obj
 0004:0000066c       $pdata$??$type_case_integer_parse_into_buffer@I@?$output_processor@_WV?$stream_output_adapter@_W@__crt_stdio_output@@V?$standard_base@_WV?$stream_output_adapter@_W@__crt_stdio_output@@@2@@__crt_stdio_output@@AEAAXII_N@Z 00000001815c866c     libucrt:output.obj
 0004:00000678       $pdata$??$type_case_integer_parse_into_buffer@_K@?$output_processor@_WV?$stream_output_adapter@_W@__crt_stdio_output@@V?$standard_base@_WV?$stream_output_adapter@_W@__crt_stdio_output@@@2@@__crt_stdio_output@@AEAAX_KI_N@Z 00000001815c8678     libucrt:output.obj
 0004:00000678       $pdata$??$type_case_integer_parse_into_buffer@_K@?$output_processor@_WV?$string_output_adapter@_W@__crt_stdio_output@@V?$standard_base@_WV?$string_output_adapter@_W@__crt_stdio_output@@@2@@__crt_stdio_output@@AEAAX_KI_N@Z 00000001815c8678     libucrt:output.obj
 0004:00000684       $pdata$??$write_multiple_characters@V?$stream_output_adapter@_W@__crt_stdio_output@@D@__crt_stdio_output@@YAXAEBV?$stream_output_adapter@_W@0@DHQEAH@Z 00000001815c8684     libucrt:output.obj
 0004:00000690       $pdata$??$write_multiple_characters@V?$string_output_adapter@_W@__crt_stdio_output@@D@__crt_stdio_output@@YAXAEBV?$string_output_adapter@_W@0@DHQEAH@Z 00000001815c8690     libucrt:output.obj
 0004:0000069c       $pdata$??0_LocaleUpdate@@QEAA@QEAU__crt_locale_pointers@@@Z 00000001815c869c     libucrt:output.obj
 0004:000006a8       $pdata$??R<lambda_a775ed57af18ba8e4d5dc780aa9068fe>@@QEBAHXZ 00000001815c86a8     libucrt:output.obj
 0004:000006b4       $pdata$?force_decimal_point@__crt_stdio_output@@YAXPEADQEAU__crt_locale_pointers@@@Z 00000001815c86b4     libucrt:output.obj
 0004:000006c0       $pdata$?parse_int_from_format_string@?$output_processor@_WV?$string_output_adapter@_W@__crt_stdio_output@@V?$standard_base@_WV?$string_output_adapter@_W@__crt_stdio_output@@@2@@__crt_stdio_output@@AEAA_NQEAH@Z 00000001815c86c0     libucrt:output.obj
 0004:000006c0       $pdata$?parse_int_from_format_string@?$output_processor@_WV?$stream_output_adapter@_W@__crt_stdio_output@@V?$standard_base@_WV?$stream_output_adapter@_W@__crt_stdio_output@@@2@@__crt_stdio_output@@AEAA_NQEAH@Z 00000001815c86c0     libucrt:output.obj
 0004:000006cc       $pdata$?process@?$output_processor@_WV?$stream_output_adapter@_W@__crt_stdio_output@@V?$standard_base@_WV?$stream_output_adapter@_W@__crt_stdio_output@@@2@@__crt_stdio_output@@QEAAHXZ 00000001815c86cc     libucrt:output.obj
 0004:000006d8       $pdata$?process@?$output_processor@_WV?$string_output_adapter@_W@__crt_stdio_output@@V?$standard_base@_WV?$string_output_adapter@_W@__crt_stdio_output@@@2@@__crt_stdio_output@@QEAAHXZ 00000001815c86d8     libucrt:output.obj
 0004:000006e4       $pdata$?state_case_size@?$output_processor@_WV?$stream_output_adapter@_W@__crt_stdio_output@@V?$standard_base@_WV?$stream_output_adapter@_W@__crt_stdio_output@@@2@@__crt_stdio_output@@AEAA_NXZ 00000001815c86e4     libucrt:output.obj
 0004:000006f0       $pdata$?state_case_size@?$output_processor@_WV?$string_output_adapter@_W@__crt_stdio_output@@V?$standard_base@_WV?$string_output_adapter@_W@__crt_stdio_output@@@2@@__crt_stdio_output@@AEAA_NXZ 00000001815c86f0     libucrt:output.obj
 0004:000006fc       $pdata$?state_case_type@?$output_processor@_WV?$stream_output_adapter@_W@__crt_stdio_output@@V?$standard_base@_WV?$stream_output_adapter@_W@__crt_stdio_output@@@2@@__crt_stdio_output@@AEAA_NXZ 00000001815c86fc     libucrt:output.obj
 0004:00000708       $pdata$?state_case_type@?$output_processor@_WV?$string_output_adapter@_W@__crt_stdio_output@@V?$standard_base@_WV?$string_output_adapter@_W@__crt_stdio_output@@@2@@__crt_stdio_output@@AEAA_NXZ 00000001815c8708     libucrt:output.obj
 0004:00000714       $pdata$?type_case_Z@?$output_processor@_WV?$stream_output_adapter@_W@__crt_stdio_output@@V?$standard_base@_WV?$stream_output_adapter@_W@__crt_stdio_output@@@2@@__crt_stdio_output@@AEAA_NXZ 00000001815c8714     libucrt:output.obj
 0004:00000714       $pdata$?type_case_Z@?$output_processor@_WV?$string_output_adapter@_W@__crt_stdio_output@@V?$standard_base@_WV?$string_output_adapter@_W@__crt_stdio_output@@@2@@__crt_stdio_output@@AEAA_NXZ 00000001815c8714     libucrt:output.obj
 0004:00000720       $pdata$?type_case_a@?$output_processor@_WV?$stream_output_adapter@_W@__crt_stdio_output@@V?$standard_base@_WV?$stream_output_adapter@_W@__crt_stdio_output@@@2@@__crt_stdio_output@@AEAA_NXZ 00000001815c8720     libucrt:output.obj
 0004:00000720       $pdata$?type_case_a@?$output_processor@_WV?$string_output_adapter@_W@__crt_stdio_output@@V?$standard_base@_WV?$string_output_adapter@_W@__crt_stdio_output@@@2@@__crt_stdio_output@@AEAA_NXZ 00000001815c8720     libucrt:output.obj
 0004:0000072c       $pdata$?type_case_c_tchar@?$output_processor@_WV?$string_output_adapter@_W@__crt_stdio_output@@V?$standard_base@_WV?$string_output_adapter@_W@__crt_stdio_output@@@2@@__crt_stdio_output@@AEAA_N_W@Z 00000001815c872c     libucrt:output.obj
 0004:0000072c       $pdata$?type_case_c_tchar@?$output_processor@_WV?$stream_output_adapter@_W@__crt_stdio_output@@V?$standard_base@_WV?$stream_output_adapter@_W@__crt_stdio_output@@@2@@__crt_stdio_output@@AEAA_N_W@Z 00000001815c872c     libucrt:output.obj
 0004:00000738       $pdata$?type_case_integer@?$output_processor@_WV?$stream_output_adapter@_W@__crt_stdio_output@@V?$standard_base@_WV?$stream_output_adapter@_W@__crt_stdio_output@@@2@@__crt_stdio_output@@AEAA_NI_N@Z 00000001815c8738     libucrt:output.obj
 0004:00000738       $pdata$?type_case_integer@?$output_processor@_WV?$string_output_adapter@_W@__crt_stdio_output@@V?$standard_base@_WV?$string_output_adapter@_W@__crt_stdio_output@@@2@@__crt_stdio_output@@AEAA_NI_N@Z 00000001815c8738     libucrt:output.obj
 0004:00000744       $pdata$?type_case_n@?$output_processor@_WV?$string_output_adapter@_W@__crt_stdio_output@@V?$standard_base@_WV?$string_output_adapter@_W@__crt_stdio_output@@@2@@__crt_stdio_output@@AEAA_NXZ 00000001815c8744     libucrt:output.obj
 0004:00000744       $pdata$?type_case_n@?$output_processor@_WV?$stream_output_adapter@_W@__crt_stdio_output@@V?$standard_base@_WV?$stream_output_adapter@_W@__crt_stdio_output@@@2@@__crt_stdio_output@@AEAA_NXZ 00000001815c8744     libucrt:output.obj
 0004:00000750       $pdata$?type_case_s@?$output_processor@_WV?$string_output_adapter@_W@__crt_stdio_output@@V?$standard_base@_WV?$string_output_adapter@_W@__crt_stdio_output@@@2@@__crt_stdio_output@@AEAA_NXZ 00000001815c8750     libucrt:output.obj
 0004:00000750       $pdata$?type_case_s@?$output_processor@_WV?$stream_output_adapter@_W@__crt_stdio_output@@V?$standard_base@_WV?$stream_output_adapter@_W@__crt_stdio_output@@@2@@__crt_stdio_output@@AEAA_NXZ 00000001815c8750     libucrt:output.obj
 0004:0000075c       $pdata$?write_stored_string_tchar@?$output_processor@_WV?$stream_output_adapter@_W@__crt_stdio_output@@V?$standard_base@_WV?$stream_output_adapter@_W@__crt_stdio_output@@@2@@__crt_stdio_output@@AEAA_N_W@Z 00000001815c875c     libucrt:output.obj
 0004:00000768       $pdata$?write_stored_string_tchar@?$output_processor@_WV?$string_output_adapter@_W@__crt_stdio_output@@V?$standard_base@_WV?$string_output_adapter@_W@__crt_stdio_output@@@2@@__crt_stdio_output@@AEAA_N_W@Z 00000001815c8768     libucrt:output.obj
 0004:00000774       $pdata$?write_string@?$string_output_adapter@_W@__crt_stdio_output@@QEBAXQEB_WHQEAHAEAV__crt_deferred_errno_cache@@@Z 00000001815c8774     libucrt:output.obj
 0004:00000780       $pdata$?write_string_impl@?$output_adapter_common@_WV?$stream_output_adapter@_W@__crt_stdio_output@@@__crt_stdio_output@@IEBAXQEB_WHQEAHAEAV__crt_deferred_errno_cache@@@Z 00000001815c8780     libucrt:output.obj
 0004:0000078c       $pdata$__stdio_common_vfwprintf 00000001815c878c     libucrt:output.obj
 0004:00000798       $pdata$??$common_assert_to_message_box@_W@@YAXQEB_W0IQEAX@Z 00000001815c8798     libucrt:assert.obj
 0004:000007a4       $pdata$??$common_assert_to_message_box_build_string@_W@@YAXQEA_W_KQEB_W2IQEAX@Z 00000001815c87a4     libucrt:assert.obj
 0004:000007b0       $pdata$??$common_assert_to_stderr@_W@@YAXQEB_W0I@Z 00000001815c87b0     libucrt:assert.obj
 0004:000007bc       $pdata$_wassert            00000001815c87bc     libucrt:assert.obj
 0004:000007c8       $pdata$fwprintf            00000001815c87c8     libucrt:assert.obj
 0004:000007d4       $pdata$swprintf            00000001815c87d4     libucrt:assert.obj
 0004:000007e0       $pdata$__acrt_call_reportfault 00000001815c87e0     libucrt:invalid_parameter.obj
 0004:000007ec       $pdata$_invalid_parameter  00000001815c87ec     libucrt:invalid_parameter.obj
 0004:000007f8       $pdata$_invalid_parameter_noinfo 00000001815c87f8     libucrt:invalid_parameter.obj
 0004:00000804       $pdata$_invalid_parameter_noinfo_noreturn 00000001815c8804     libucrt:invalid_parameter.obj
 0004:00000810       $pdata$_invoke_watson      00000001815c8810     libucrt:invalid_parameter.obj
 0004:0000081c       $pdata$_stricmp            00000001815c881c     libucrt:stricmp.obj
 0004:00000828       $pdata$_stricmp_l          00000001815c8828     libucrt:stricmp.obj
 0004:00000834       $pdata$_callnewh           00000001815c8834     libucrt:new_handler.obj
 0004:00000840       $pdata$_query_new_handler  00000001815c8840     libucrt:new_handler.obj
 0004:0000084c       $pdata$_initterm           00000001815c884c     libucrt:initterm.obj
 0004:00000858       $pdata$_initterm_e         00000001815c8858     libucrt:initterm.obj
 0004:00000864       $pdata$_seh_filter_exe     00000001815c8864     libucrt:exception_filter.obj
 0004:00000870       $pdata$??$?RV<lambda_d80eeec6fff315bfe5c115232f3240e3>@@AEAV<lambda_6e4b09c48022b2350581041d5f6b0c4c>@@V<lambda_2358e3775559c9db80273638284d5e45>@@@?$__crt_seh_guarded_call@X@@QEAAX$$QEAV<lambda_d80eeec6fff315bfe5c115232f3240e3>@@AEAV<lambda_6e4b09c48022b2350581041d5f6b0c4c>@@$$QEAV<lambda_2358e3775559c9db80273638284d5e45>@@@Z 00000001815c8870     libucrt:exit.obj
 0004:0000087c       $pdata$??R<lambda_6e4b09c48022b2350581041d5f6b0c4c>@@QEBA@XZ 00000001815c887c     libucrt:exit.obj
 0004:00000888       $pdata$?common_exit@@YAXHW4_crt_exit_cleanup_mode@@W4_crt_exit_return_mode@@@Z 00000001815c8888     libucrt:exit.obj
 0004:00000894       $pdata$?exit_or_terminate_process@@YAXI@Z 00000001815c8894     libucrt:exit.obj
 0004:000008a0       $pdata$?try_cor_exit_process@@YAXI@Z 00000001815c88a0     libucrt:exit.obj
 0004:000008ac       $pdata$??$parse_command_line@D@@YAXPEADPEAPEAD0PEA_K2@Z 00000001815c88ac     libucrt:argv_parsing.obj
 0004:000008b8       $pdata$__acrt_allocate_buffer_for_argv 00000001815c88b8     libucrt:argv_parsing.obj
 0004:000008c4       $pdata$_configure_narrow_argv 00000001815c88c4     libucrt:argv_parsing.obj
 0004:000008d0       $pdata$??$common_initialize_environment_nolock@D@@YAHXZ 00000001815c88d0     libucrt:environment_initialization.obj
 0004:000008dc       $pdata$??$create_environment@D@@YAQEAPEADQEAD@Z 00000001815c88dc     libucrt:environment_initialization.obj
 0004:000008e8       $pdata$??$free_environment@_W@@YAXQEAPEA_W@Z 00000001815c88e8     libucrt:environment_initialization.obj
 0004:000008e8       $pdata$??$free_environment@D@@YAXQEAPEAD@Z 00000001815c88e8     libucrt:environment_initialization.obj
 0004:000008f4       $pdata$??$uninitialize_environment_internal@D@@YAXAEAPEAPEAD@Z 00000001815c88f4     libucrt:environment_initialization.obj
 0004:00000900       $pdata$??$uninitialize_environment_internal@_W@@YAXAEAPEAPEA_W@Z 00000001815c8900     libucrt:environment_initialization.obj
 0004:0000090c       $pdata$__dcrt_uninitialize_environments_nolock 00000001815c890c     libucrt:environment_initialization.obj
 0004:00000918       $pdata$??$?RV<lambda_7777bce6b2f8c936911f934f8298dc43>@@AEAV<lambda_f03950bc5685219e0bcd2087efbe011e>@@V<lambda_3883c3dff614d5e0c5f61bb1ac94921c>@@@?$__crt_seh_guarded_call@H@@QEAAH$$QEAV<lambda_7777bce6b2f8c936911f934f8298dc43>@@AEAV<lambda_f03950bc5685219e0bcd2087efbe011e>@@$$QEAV<lambda_3883c3dff614d5e0c5f61bb1ac94921c>@@@Z 00000001815c8918     libucrt:onexit.obj
 0004:00000924       $pdata$??R<lambda_f03950bc5685219e0bcd2087efbe011e>@@QEBAHXZ 00000001815c8924     libucrt:onexit.obj
 0004:00000930       $pdata$_execute_onexit_table 00000001815c8930     libucrt:onexit.obj
 0004:0000093c       $pdata$initialize_c        00000001815c893c     libucrt:initialization.obj
 0004:00000948       $pdata$uninitialize_environment 00000001815c8948     libucrt:initialization.obj
 0004:00000954       $pdata$initialize_pointers 00000001815c8954     libucrt:initialization.obj
 0004:00000960       $pdata$uninitialize_allocated_memory 00000001815c8960     libucrt:initialization.obj
 0004:0000096c       $pdata$uninitialize_allocated_io_buffers 00000001815c896c     libucrt:initialization.obj
 0004:00000978       $pdata$__acrt_thread_attach 00000001815c8978     libucrt:initialization.obj
 0004:00000984       $pdata$__acrt_thread_detach 00000001815c8984     libucrt:initialization.obj
 0004:00000990       $pdata$__acrt_uninitialize 00000001815c8990     libucrt:initialization.obj
 0004:0000099c       $pdata$__acrt_uninitialize_critical 00000001815c899c     libucrt:initialization.obj
 0004:000009a8       $pdata$terminate           00000001815c89a8     libucrt:terminate.obj
 0004:000009b4       $pdata$strcpy_s            00000001815c89b4     libucrt:strcpy_s.obj
 0004:000009c0       $pdata$??$parse_integer@KV?$c_string_character_source@_W@__crt_strtox@@@__crt_strtox@@YAKQEAU__crt_locale_pointers@@V?$c_string_character_source@_W@0@H_N@Z 00000001815c89c0     libucrt:atox.obj
 0004:000009d8       $pdata$abort               00000001815c89d8     libucrt:abort.obj
 0004:000009e4       $pdata$__acrt_errno_map_os_error 00000001815c89e4     libucrt:errno.obj
 0004:000009f0       $pdata$__doserrno          00000001815c89f0     libucrt:errno.obj
 0004:000009fc       $pdata$_errno              00000001815c89fc     libucrt:errno.obj
 0004:00000a08       $pdata$_fileno             00000001815c8a08     libucrt:fileno.obj
 0004:00000a14       $pdata$??$write_buffer_nolock@D@@YA_NDV__crt_stdio_stream@@@Z 00000001815c8a14     libucrt:_flsbuf.obj
 0004:00000a20       $pdata$??$write_buffer_nolock@_W@@YA_N_WV__crt_stdio_stream@@@Z 00000001815c8a20     libucrt:_flsbuf.obj
 0004:00000a2c       $pdata$?stream_is_at_end_of_file_nolock@@YA_NV__crt_stdio_stream@@@Z 00000001815c8a2c     libucrt:_flsbuf.obj
 0004:00000a38       $pdata$__acrt_stdio_flush_and_write_narrow_nolock 00000001815c8a38     libucrt:_flsbuf.obj
 0004:00000a44       $pdata$__acrt_stdio_flush_and_write_wide_nolock 00000001815c8a44     libucrt:_flsbuf.obj
 0004:00000a50       $pdata$?initialize_inherited_file_handles_nolock@@YAXXZ 00000001815c8a50     libucrt:ioinit.obj
 0004:00000a5c       $pdata$?initialize_stdio_handles_nolock@@YAXXZ 00000001815c8a5c     libucrt:ioinit.obj
 0004:00000a68       $pdata$__acrt_initialize_lowio 00000001815c8a68     libucrt:ioinit.obj
 0004:00000a74       $pdata$__acrt_uninitialize_lowio 00000001815c8a74     libucrt:ioinit.obj
 0004:00000a80       $pdata$_calloc_base        00000001815c8a80     libucrt:calloc_base.obj
 0004:00000a8c       $pdata$_free_base          00000001815c8a8c     libucrt:free_base.obj
 0004:00000a98       $pdata$?try_get_function@@YAPEAXW4function_id@?A0x391cf84c@@QEBDQEBW4module_id@2@2@Z 00000001815c8a98     libucrt:winapi_thunks.obj
 0004:00000aa4       $pdata$__acrt_AppPolicyGetProcessTerminationMethodInternal 00000001815c8aa4     libucrt:winapi_thunks.obj
 0004:00000ab0       $pdata$__acrt_AppPolicyGetShowDeveloperDiagnosticInternal 00000001815c8ab0     libucrt:winapi_thunks.obj
 0004:00000abc       $pdata$__acrt_AppPolicyGetWindowingModelInternal 00000001815c8abc     libucrt:winapi_thunks.obj
 0004:00000ac8       $pdata$__acrt_AreFileApisANSI 00000001815c8ac8     libucrt:winapi_thunks.obj
 0004:00000ad4       $pdata$__acrt_FlsAlloc     00000001815c8ad4     libucrt:winapi_thunks.obj
 0004:00000ae0       $pdata$__acrt_FlsFree      00000001815c8ae0     libucrt:winapi_thunks.obj
 0004:00000aec       $pdata$__acrt_FlsGetValue  00000001815c8aec     libucrt:winapi_thunks.obj
 0004:00000af8       $pdata$__acrt_FlsSetValue  00000001815c8af8     libucrt:winapi_thunks.obj
 0004:00000b04       $pdata$__acrt_InitializeCriticalSectionEx 00000001815c8b04     libucrt:winapi_thunks.obj
 0004:00000b10       $pdata$__acrt_LCMapStringEx 00000001815c8b10     libucrt:winapi_thunks.obj
 0004:00000b1c       $pdata$__acrt_LocaleNameToLCID 00000001815c8b1c     libucrt:winapi_thunks.obj
 0004:00000b28       $pdata$__acrt_MessageBoxW  00000001815c8b28     libucrt:winapi_thunks.obj
 0004:00000b34       $pdata$__acrt_can_show_message_box 00000001815c8b34     libucrt:winapi_thunks.obj
 0004:00000b40       $pdata$__acrt_get_parent_window 00000001815c8b40     libucrt:winapi_thunks.obj
 0004:00000b4c       $pdata$__acrt_initialize_winapi_thunks 00000001815c8b4c     libucrt:winapi_thunks.obj
 0004:00000b58       $pdata$__acrt_is_interactive 00000001815c8b58     libucrt:winapi_thunks.obj
 0004:00000b64       $pdata$__acrt_uninitialize_winapi_thunks 00000001815c8b64     libucrt:winapi_thunks.obj
 0004:00000b70       $pdata$_fcloseall          00000001815c8b70     libucrt:closeall.obj
 0004:00000b7c       $pdata$??$?RV<lambda_842d9ff0dc9ef11c61343bbaebe7f885>@@AEAV<lambda_c5860995281e5c4ce005b3de8f5874ee>@@V<lambda_d90129c13df834fdcbf8d2b88dafcf2d>@@@?$__crt_seh_guarded_call@X@@QEAAX$$QEAV<lambda_842d9ff0dc9ef11c61343bbaebe7f885>@@AEAV<lambda_c5860995281e5c4ce005b3de8f5874ee>@@$$QEAV<lambda_d90129c13df834fdcbf8d2b88dafcf2d>@@@Z 00000001815c8b7c     libucrt:fflush.obj
 0004:00000b88       $pdata$??$?RV<lambda_886d6c58226a84441f68b9f2b8217b83>@@AEAV<lambda_ab61a845afdef5b7c387490eaf3616ee>@@V<lambda_f7f22ab5edc0698d5f6905b0d3f44752>@@@?$__crt_seh_guarded_call@X@@QEAAX$$QEAV<lambda_886d6c58226a84441f68b9f2b8217b83>@@AEAV<lambda_ab61a845afdef5b7c387490eaf3616ee>@@$$QEAV<lambda_f7f22ab5edc0698d5f6905b0d3f44752>@@@Z 00000001815c8b88     libucrt:fflush.obj
 0004:00000b94       $pdata$??$?RV<lambda_c376a267cfb53b6959b3b692ec76b120>@@AEAV<lambda_9a32fed5bf61b6b509b2d3f6003082a1>@@V<lambda_572fbb9fa0ab338edf41edfd4b5fcc8d>@@@?$__crt_seh_guarded_call@H@@QEAAH$$QEAV<lambda_c376a267cfb53b6959b3b692ec76b120>@@AEAV<lambda_9a32fed5bf61b6b509b2d3f6003082a1>@@$$QEAV<lambda_572fbb9fa0ab338edf41edfd4b5fcc8d>@@@Z 00000001815c8b94     libucrt:fflush.obj
 0004:00000ba0       $pdata$?common_flush_all@@YAH_N@Z 00000001815c8ba0     libucrt:fflush.obj
 0004:00000bac       $pdata$__acrt_stdio_flush_nolock 00000001815c8bac     libucrt:fflush.obj
 0004:00000bb8       $pdata$_fflush_nolock      00000001815c8bb8     libucrt:fflush.obj
 0004:00000bc4       $pdata$fflush              00000001815c8bc4     libucrt:fflush.obj
 0004:00000bd0       $pdata$__acrt_stdio_free_buffer_nolock 00000001815c8bd0     libucrt:_freebuf.obj
 0004:00000bdc       $pdata$??$?RV<lambda_0ae27a3a962d80f24befdcbee591983d>@@AEAV<lambda_8d0ee55de4b1038c4002e0adecdf1839>@@V<lambda_dc504788e8f1664fe9b84e20bfb512f2>@@@?$__crt_seh_guarded_call@X@@QEAAX$$QEAV<lambda_0ae27a3a962d80f24befdcbee591983d>@@AEAV<lambda_8d0ee55de4b1038c4002e0adecdf1839>@@$$QEAV<lambda_dc504788e8f1664fe9b84e20bfb512f2>@@@Z 00000001815c8bdc     libucrt:per_thread_data.obj
 0004:00000be8       $pdata$??$?RV<lambda_2d41944a1d46af3157314b8a01080d33>@@AEAV<lambda_8f455de75cd7d7f24b4096f044d8b9e6>@@V<lambda_aa500f224e6afead328df44964fe2772>@@@?$__crt_seh_guarded_call@X@@QEAAX$$QEAV<lambda_2d41944a1d46af3157314b8a01080d33>@@AEAV<lambda_8f455de75cd7d7f24b4096f044d8b9e6>@@$$QEAV<lambda_aa500f224e6afead328df44964fe2772>@@@Z 00000001815c8be8     libucrt:per_thread_data.obj
 0004:00000bf4       $pdata$??$?RV<lambda_aa87e3671a710a21b5dc78c0bdf72e11>@@AEAV<lambda_92619d2358a28f41a33ba319515a20b9>@@V<lambda_6992ecaafeb10aed2b74cb1fae11a551>@@@?$__crt_seh_guarded_call@X@@QEAAX$$QEAV<lambda_aa87e3671a710a21b5dc78c0bdf72e11>@@AEAV<lambda_92619d2358a28f41a33ba319515a20b9>@@$$QEAV<lambda_6992ecaafeb10aed2b74cb1fae11a551>@@@Z 00000001815c8bf4     libucrt:per_thread_data.obj
 0004:00000c00       $pdata$??$?RV<lambda_f2e299630e499de9f9a165e60fcd3db5>@@AEAV<lambda_2ae9d31cdba2644fcbeaf08da7c24588>@@V<lambda_40d01ff24d0e7b3814fdbdcee8eab3c7>@@@?$__crt_seh_guarded_call@X@@QEAAX$$QEAV<lambda_f2e299630e499de9f9a165e60fcd3db5>@@AEAV<lambda_2ae9d31cdba2644fcbeaf08da7c24588>@@$$QEAV<lambda_40d01ff24d0e7b3814fdbdcee8eab3c7>@@@Z 00000001815c8c00     libucrt:per_thread_data.obj
 0004:00000c0c       $pdata$?construct_ptd_array@@YAXQEAU__acrt_ptd@@@Z 00000001815c8c0c     libucrt:per_thread_data.obj
 0004:00000c18       $pdata$?destroy_fls@@YAXPEAX@Z 00000001815c8c18     libucrt:per_thread_data.obj
 0004:00000c24       $pdata$?destroy_ptd_array@@YAXQEAU__acrt_ptd@@@Z 00000001815c8c24     libucrt:per_thread_data.obj
 0004:00000c30       $pdata$?replace_current_thread_locale_nolock@@YAXQEAU__acrt_ptd@@QEAU__crt_locale_data@@@Z 00000001815c8c30     libucrt:per_thread_data.obj
 0004:00000c3c       $pdata$__acrt_freeptd      00000001815c8c3c     libucrt:per_thread_data.obj
 0004:00000c48       $pdata$__acrt_getptd       00000001815c8c48     libucrt:per_thread_data.obj
 0004:00000c54       $pdata$__acrt_getptd_head  00000001815c8c54     libucrt:per_thread_data.obj
 0004:00000c60       $pdata$__acrt_getptd_noexit 00000001815c8c60     libucrt:per_thread_data.obj
 0004:00000c6c       $pdata$__acrt_initialize_ptd 00000001815c8c6c     libucrt:per_thread_data.obj
 0004:00000c78       $pdata$__acrt_uninitialize_ptd 00000001815c8c78     libucrt:per_thread_data.obj
 0004:00000c84       $pdata$isdigit             00000001815c8c84     libucrt:_ctype.obj
 0004:00000c90       $pdata$?internal_isupper_l@@YA_NHQEAU__crt_locale_pointers@@@Z 00000001815c8c90     libucrt:tolower_toupper.obj
 0004:00000c9c       $pdata$_tolower_l          00000001815c8c9c     libucrt:tolower_toupper.obj
 0004:00000ca8       $pdata$tolower             00000001815c8ca8     libucrt:tolower_toupper.obj
 0004:00000cb4       $pdata$_malloc_base        00000001815c8cb4     libucrt:malloc_base.obj
 0004:00000cc0       $pdata$wcstol              00000001815c8cc0     libucrt:strtox.obj
 0004:00000ccc       $pdata$_mbtowc_l           00000001815c8ccc     libucrt:mbtowc.obj
 0004:00000cd8       $pdata$_wctomb_s_l         00000001815c8cd8     libucrt:wctomb.obj
 0004:00000ce4       $pdata$wctomb_s            00000001815c8ce4     libucrt:wctomb.obj
 0004:00000cf0       $pdata$__acrt_update_locale_info 00000001815c8cf0     libucrt:locale_update.obj
 0004:00000cfc       $pdata$__acrt_update_multibyte_info 00000001815c8cfc     libucrt:locale_update.obj
 0004:00000d08       $pdata$?fp_format_a@@YAHQEBNPEAD_KQEAD2H_NIQEAU__crt_locale_pointers@@@Z 00000001815c8d08     libucrt:cvt.obj
 0004:00000d14       $pdata$?fp_format_e@@YAHQEBNQEAD_K12H_NIQEAU__crt_locale_pointers@@@Z 00000001815c8d14     libucrt:cvt.obj
 0004:00000d20       $pdata$?fp_format_e_internal@@YAHQEAD_KH_NIQEAU_strflt@@2QEAU__crt_locale_pointers@@@Z 00000001815c8d20     libucrt:cvt.obj
 0004:00000d2c       $pdata$?fp_format_f_internal@@YAHQEAD_KHQEAU_strflt@@_NQEAU__crt_locale_pointers@@@Z 00000001815c8d2c     libucrt:cvt.obj
 0004:00000d38       $pdata$?fp_format_g@@YAHQEBNQEAD_K12H_NIQEAU__crt_locale_pointers@@@Z 00000001815c8d38     libucrt:cvt.obj
 0004:00000d44       $pdata$?fp_format_nan_or_infinity@@YAHW4__acrt_fp_class@@_NPEAD_K1@Z 00000001815c8d44     libucrt:cvt.obj
 0004:00000d50       $pdata$__acrt_fp_format    00000001815c8d50     libucrt:cvt.obj
 0004:00000d5c       $pdata$_fputwc_nolock      00000001815c8d5c     libucrt:fputwc.obj
 0004:00000d68       $pdata$__acrt_stdio_begin_temporary_buffering_nolock 00000001815c8d68     libucrt:_sftbuf.obj
 0004:00000d74       $pdata$__acrt_stdio_end_temporary_buffering_nolock 00000001815c8d74     libucrt:_sftbuf.obj
 0004:00000d80       $pdata$??$?RV<lambda_410d79af7f07d98d83a3f525b3859a53>@@AEAV<lambda_3e16ef9562a7dcce91392c22ab16ea36>@@V<lambda_38119f0e861e05405d8a144b9b982f0a>@@@?$__crt_seh_guarded_call@X@@QEAAX$$QEAV<lambda_410d79af7f07d98d83a3f525b3859a53>@@AEAV<lambda_3e16ef9562a7dcce91392c22ab16ea36>@@$$QEAV<lambda_38119f0e861e05405d8a144b9b982f0a>@@@Z 00000001815c8d80     libucrt:wsetlocale.obj
 0004:00000d8c       $pdata$__acrt_uninitialize_locale 00000001815c8d8c     libucrt:wsetlocale.obj
 0004:00000d98       $pdata$??$common_xtox@K_W@@YAHKQEA_W_KI_N@Z 00000001815c8d98     libucrt:xtoa.obj
 0004:00000da4       $pdata$??$common_xtox_s@K_W@@YAHKQEA_W_KI_N@Z 00000001815c8da4     libucrt:xtoa.obj
 0004:00000db0       $pdata$_itow_s             00000001815c8db0     libucrt:xtoa.obj
 0004:00000dbc       $pdata$_set_error_mode     00000001815c8dbc     libucrt:set_error_mode.obj
 0004:00000dc8       $pdata$wcscat_s            00000001815c8dc8     libucrt:wcscat_s.obj
 0004:00000dd4       $pdata$wcscpy_s            00000001815c8dd4     libucrt:wcscpy_s.obj
 0004:00000de0       $pdata$wcsncat_s           00000001815c8de0     libucrt:wcsncat_s.obj
 0004:00000dec       $pdata$??$__acrt_wcs_to_mbs_cp@U__crt_win32_buffer_no_resizing@@@@YAHQEB_WAEAV?$__crt_win32_buffer@DU__crt_win32_buffer_no_resizing@@@@I@Z 00000001815c8dec     libucrt:getmodulefilenamea.obj
 0004:00000df8       $pdata$__acrt_GetModuleFileNameA 00000001815c8df8     libucrt:getmodulefilenamea.obj
 0004:00000e04       $pdata$__acrt_show_wide_message_box 00000001815c8e04     libucrt:crtmbox.obj
 0004:00000e10       $pdata$??$?RV<lambda_84ec643ea9557e2f7dc01bb0e9624395>@@AEAV<lambda_ca71763b3c0644891230e4f79ea54fa6>@@V<lambda_439a761618c59b0600e24586724d733b>@@@?$__crt_seh_guarded_call@H@@QEAAH$$QEAV<lambda_84ec643ea9557e2f7dc01bb0e9624395>@@AEAV<lambda_ca71763b3c0644891230e4f79ea54fa6>@@$$QEAV<lambda_439a761618c59b0600e24586724d733b>@@@Z 00000001815c8e10     libucrt:setvbuf.obj
 0004:00000e1c       $pdata$??R<lambda_ca71763b3c0644891230e4f79ea54fa6>@@QEBAHXZ 00000001815c8e1c     libucrt:setvbuf.obj
 0004:00000e28       $pdata$setvbuf             00000001815c8e28     libucrt:setvbuf.obj
 0004:00000e34       $pdata$??$?RV<lambda_450d765d439847d4c735a33c368b5fc0>@@AEAV<lambda_44731a7d0e6d81c3e6aa82d741081786>@@V<lambda_601a2a7da3b7a96e9554ac7215c4b07c>@@@?$__crt_seh_guarded_call@P6AXH@Z@@QEAAP6AXH@Z$$QEAV<lambda_450d765d439847d4c735a33c368b5fc0>@@AEAV<lambda_44731a7d0e6d81c3e6aa82d741081786>@@$$QEAV<lambda_601a2a7da3b7a96e9554ac7215c4b07c>@@@Z 00000001815c8e34     libucrt:signal.obj
 0004:00000e40       $pdata$__acrt_get_sigabrt_handler 00000001815c8e40     libucrt:signal.obj
 0004:00000e4c       $pdata$raise               00000001815c8e4c     libucrt:signal.obj
 0004:00000e58       $pdata$__acrt_initialize_locks 00000001815c8e58     libucrt:locks.obj
 0004:00000e64       $pdata$__acrt_uninitialize_locks 00000001815c8e64     libucrt:locks.obj
 0004:00000e70       $pdata$__acrt_get_developer_information_policy 00000001815c8e70     libucrt:win_policies.obj
 0004:00000e7c       $pdata$__acrt_get_process_end_policy 00000001815c8e7c     libucrt:win_policies.obj
 0004:00000e88       $pdata$__acrt_get_windowing_model_policy 00000001815c8e88     libucrt:win_policies.obj
 0004:00000e94       $pdata$??$__acrt_mbs_to_wcs_cp@U__crt_win32_buffer_internal_dynamic_resizing@@@@YAHQEBDAEAV?$__crt_win32_buffer@_WU__crt_win32_buffer_internal_dynamic_resizing@@@@I@Z 00000001815c8e94     libucrt:argv_wildcards.obj
 0004:00000ea0       $pdata$??$__acrt_wcs_to_mbs_cp@U__crt_win32_buffer_internal_dynamic_resizing@@@@YAHQEB_WAEAV?$__crt_win32_buffer@DU__crt_win32_buffer_internal_dynamic_resizing@@@@I@Z 00000001815c8ea0     libucrt:argv_wildcards.obj
 0004:00000eac       $pdata$??$common_expand_argv_wildcards@D@@YAHQEAPEADQEAPEAPEAD@Z 00000001815c8eac     libucrt:argv_wildcards.obj
 0004:00000eb8       $pdata$??$copy_and_add_argument_to_buffer@D@@YAHQEBD0_KAEAV?$argument_list@D@?A0x5f5c8891@@@Z 00000001815c8eb8     libucrt:argv_wildcards.obj
 0004:00000ec4       $pdata$??$expand_argument_wildcards@D@@YAHQEAD0AEAV?$argument_list@D@?A0x5f5c8891@@@Z 00000001815c8ec4     libucrt:argv_wildcards.obj
 0004:00000ed0       $pdata$??$?RV<lambda_efdfa57d1f175319df784efa44bb7b81>@@AEAV<lambda_5f0a4c1567f8adc6734073e5d1e1b35c>@@V<lambda_2e8a7d3640ea6ccb4c2413664c2db6fd>@@@?$__crt_seh_guarded_call@X@@QEAAX$$QEAV<lambda_efdfa57d1f175319df784efa44bb7b81>@@AEAV<lambda_5f0a4c1567f8adc6734073e5d1e1b35c>@@$$QEAV<lambda_2e8a7d3640ea6ccb4c2413664c2db6fd>@@@Z 00000001815c8ed0     libucrt:mbctype.obj
 0004:00000edc       $pdata$?getSystemCP@@YAHH@Z 00000001815c8edc     libucrt:mbctype.obj
 0004:00000ee8       $pdata$?setSBCS@@YAXPEAU__crt_multibyte_data@@@Z 00000001815c8ee8     libucrt:mbctype.obj
 0004:00000ef4       $pdata$?setSBUpLow@@YAXPEAU__crt_multibyte_data@@@Z 00000001815c8ef4     libucrt:mbctype.obj
 0004:00000f00       $pdata$?setmbcp_internal@@YAHH_NQEAU__acrt_ptd@@QEAPEAU__crt_multibyte_data@@@Z 00000001815c8f00     libucrt:mbctype.obj
 0004:00000f0c       $pdata$?update_thread_multibyte_data_internal@@YAPEAU__crt_multibyte_data@@QEAU__acrt_ptd@@QEAPEAU1@@Z 00000001815c8f0c     libucrt:mbctype.obj
 0004:00000f18       $pdata$__acrt_initialize_multibyte 00000001815c8f18     libucrt:mbctype.obj
 0004:00000f24       $pdata$__acrt_update_thread_multibyte_data 00000001815c8f24     libucrt:mbctype.obj
 0004:00000f30       $pdata$_setmbcp_nolock     00000001815c8f30     libucrt:mbctype.obj
 0004:00000f3c       $pdata$?x_ismbbtype_l@@YAHPEAU__crt_locale_pointers@@IHH@Z 00000001815c8f3c     libucrt:ismbbyte.obj
 0004:00000f48       $pdata$__acrt_initialize_command_line 00000001815c8f48     libucrt:argv_data.obj
 0004:00000f54       $pdata$__acrt_WideCharToMultiByte 00000001815c8f54     libucrt:widechartomultibyte.obj
 0004:00000f60       $pdata$__dcrt_get_narrow_environment_from_os 00000001815c8f60     libucrt:get_environment_from_os.obj
 0004:00000f6c       $pdata$_recalloc_base      00000001815c8f6c     libucrt:recalloc.obj
 0004:00000f78       $pdata$__acrt_initialize_heap 00000001815c8f78     libucrt:heap_handle.obj
 0004:00000f84       $pdata$__acrt_execute_initializers 00000001815c8f84     libucrt:shared_initialization.obj
 0004:00000f90       $pdata$__acrt_execute_uninitializers 00000001815c8f90     libucrt:shared_initialization.obj
 0004:00000f9c       $pdata$__pctype_func       00000001815c8f9c     libucrt:ctype.obj
 0004:00000fa8       $pdata$iswctype            00000001815c8fa8     libucrt:iswctype.obj
 0004:00000fb4       $pdata$_isctype_l          00000001815c8fb4     libucrt:isctype.obj
 0004:00000fc0       $pdata$__acrt_lowio_create_handle_array 00000001815c8fc0     libucrt:osfinfo.obj
 0004:00000fcc       $pdata$__acrt_lowio_destroy_handle_array 00000001815c8fcc     libucrt:osfinfo.obj
 0004:00000fd8       $pdata$__acrt_lowio_ensure_fh_exists 00000001815c8fd8     libucrt:osfinfo.obj
 0004:00000fe4       $pdata$_free_osfhnd        00000001815c8fe4     libucrt:osfinfo.obj
 0004:00000ff0       $pdata$_get_osfhandle      00000001815c8ff0     libucrt:osfinfo.obj
 0004:00000ffc       $pdata$_isatty             00000001815c8ffc     libucrt:isatty.obj
 0004:00001008       $pdata$?write_double_translated_ansi_nolock@@YA?AUwrite_result@?A0x17268360@@HQEBDI@Z 00000001815c9008     libucrt:write.obj
 0004:00001014       $pdata$?write_text_ansi_nolock@@YA?AUwrite_result@?A0x17268360@@HQEBDI@Z 00000001815c9014     libucrt:write.obj
 0004:00001020       $pdata$?write_text_utf16le_nolock@@YA?AUwrite_result@?A0x17268360@@HQEBDI@Z 00000001815c9020     libucrt:write.obj
 0004:0000102c       $pdata$?write_text_utf8_nolock@@YA?AUwrite_result@?A0x17268360@@HQEBDI@Z 00000001815c902c     libucrt:write.obj
 0004:00001038       $pdata$_write              00000001815c9038     libucrt:write.obj
 0004:00001044       $pdata$_write_nolock       00000001815c9044     libucrt:write.obj
 0004:00001050       $pdata$??$common_lseek@_J@@YA_JH_JH@Z 00000001815c9050     libucrt:lseek.obj
 0004:0000105c       $pdata$??$common_lseek_nolock@_J@@YA_JH_JH@Z 00000001815c905c     libucrt:lseek.obj
 0004:00001068       $pdata$__acrt_stdio_allocate_buffer_nolock 00000001815c9068     libucrt:_getbuf.obj
 0004:00001074       $pdata$?GetTableIndexFromLocaleName@@YAHPEB_W@Z 00000001815c9074     libucrt:lcidtoname_downlevel.obj
 0004:00001080       $pdata$__acrt_DownlevelLocaleNameToLCID 00000001815c9080     libucrt:lcidtoname_downlevel.obj
 0004:0000108c       $pdata$_fclose_nolock      00000001815c908c     libucrt:fclose.obj
 0004:00001098       $pdata$fclose              00000001815c9098     libucrt:fclose.obj
 0004:000010a4       $pdata$??$?RV<lambda_a37b2b86f63e897a80ea819b0eb08c01>@@AEAV<lambda_38ce7e780aa69e748d6df282ebc68efe>@@V<lambda_99fb1378e971ab6e7edea83e3a7a83a2>@@@?$__crt_seh_guarded_call@H@@QEAAH$$QEAV<lambda_a37b2b86f63e897a80ea819b0eb08c01>@@AEAV<lambda_38ce7e780aa69e748d6df282ebc68efe>@@$$QEAV<lambda_99fb1378e971ab6e7edea83e3a7a83a2>@@@Z 00000001815c90a4     libucrt:commit.obj
 0004:000010b0       $pdata$_commit             00000001815c90b0     libucrt:commit.obj
 0004:000010bc       $pdata$__acrt_free_locale  00000001815c90bc     libucrt:locale_refcounting.obj
 0004:000010c8       $pdata$__acrt_locale_free_lc_time_if_unreferenced 00000001815c90c8     libucrt:locale_refcounting.obj
 0004:000010d4       $pdata$__acrt_release_locale_ref 00000001815c90d4     libucrt:locale_refcounting.obj
 0004:000010e0       $pdata$__acrt_update_thread_locale_data 00000001815c90e0     libucrt:locale_refcounting.obj
 0004:000010ec       $pdata$_updatetlocinfoEx_nolock 00000001815c90ec     libucrt:locale_refcounting.obj
 0004:000010f8       $pdata$_isleadbyte_l       00000001815c90f8     libucrt:_wctype.obj
 0004:00001104       $pdata$?__acrt_LCMapStringA_stat@@YAHPEAU__crt_locale_pointers@@PEB_WKPEBDHPEADHHH@Z 00000001815c9104     libucrt:lcmapstringa.obj
 0004:00001110       $pdata$__acrt_LCMapStringA 00000001815c9110     libucrt:lcmapstringa.obj
 0004:0000111c       $pdata$?__mbrtowc_utf8@__crt_mbstring@@YA_KPEA_WPEBD_KPEAU_Mbstatet@@@Z 00000001815c911c     libucrt:mbrtowc.obj
 0004:00001128       $pdata$?__mbsrtowcs_utf8@__crt_mbstring@@YA_KPEA_WPEAPEBD_KPEAU_Mbstatet@@@Z 00000001815c9128     libucrt:mbrtowc.obj
 0004:00001134       $pdata$?__c32rtomb_utf8@__crt_mbstring@@YA_KPEAD_UPEAU_Mbstatet@@@Z 00000001815c9134     libucrt:c32rtomb.obj
 0004:00001140       $pdata$__acrt_fp_strflt_to_string 00000001815c9140     libucrt:_fptostr.obj
 0004:0000114c       $pdata$?divide@__crt_strtox@@YA_KAEAUbig_integer@1@AEBU21@@Z 00000001815c914c     libucrt:cfout.obj
 0004:00001158       $pdata$0$?divide@__crt_strtox@@YA_KAEAUbig_integer@1@AEBU21@@Z 00000001815c9158     libucrt:cfout.obj
 0004:00001164       $pdata$1$?divide@__crt_strtox@@YA_KAEAUbig_integer@1@AEBU21@@Z 00000001815c9164     libucrt:cfout.obj
 0004:00001170       $pdata$__acrt_fltout       00000001815c9170     libucrt:cfout.obj
 0004:0000117c       $pdata$memcpy_s            00000001815c917c     libucrt:cfout.obj
 0004:00001188       $pdata$__acrt_locale_free_monetary 00000001815c9188     libucrt:initmon.obj
 0004:00001194       $pdata$__acrt_locale_free_numeric 00000001815c9194     libucrt:initnum.obj
 0004:000011a0       $pdata$?free_crt_array_internal@@YAXQEAPEBX_K@Z 00000001815c91a0     libucrt:inittime.obj
 0004:000011ac       $pdata$__acrt_locale_free_time 00000001815c91ac     libucrt:inittime.obj
 0004:000011b8       $pdata$__acrt_GetStringTypeA 00000001815c91b8     libucrt:getstringtypea.obj
 0004:000011c4       $pdata$qsort               00000001815c91c4     libucrt:qsort.obj
 0004:000011d0       $pdata$4$qsort             00000001815c91d0     libucrt:qsort.obj
 0004:000011dc       $pdata$5$qsort             00000001815c91dc     libucrt:qsort.obj
 0004:000011e8       $pdata$strncpy_s           00000001815c91e8     libucrt:strncpy_s.obj
 0004:000011f4       $pdata$fallbackMethod      00000001815c91f4     libucrt:strpbrk.obj
 0004:00001200       $pdata$strpbrk             00000001815c9200     libucrt:strpbrk.obj
 0004:0000120c       $pdata$_mbsdec_l           00000001815c920c     libucrt:mbsdec.obj
 0004:00001218       $pdata$?initialize_multibyte@@YAHXZ 00000001815c9218     libucrt:multibyte_initializer.obj
 0004:00001224       $pdata$_msize_base         00000001815c9224     libucrt:msize.obj
 0004:00001230       $pdata$_realloc_base       00000001815c9230     libucrt:realloc_base.obj
 0004:0000123c       $pdata$_putwch_nolock      00000001815c923c     libucrt:putwch.obj
 0004:00001248       $pdata$??$?RV<lambda_751a882b2c74d4b022dec766aa51a29a>@@AEAV<lambda_628dfdc04ba53c8bfc02c9951375f3f5>@@V<lambda_f6c7be5f7998530c34de24c7437d6b54>@@@?$__crt_seh_guarded_call@H@@QEAAH$$QEAV<lambda_751a882b2c74d4b022dec766aa51a29a>@@AEAV<lambda_628dfdc04ba53c8bfc02c9951375f3f5>@@$$QEAV<lambda_f6c7be5f7998530c34de24c7437d6b54>@@@Z 00000001815c9248     libucrt:close.obj
 0004:00001254       $pdata$_close              00000001815c9254     libucrt:close.obj
 0004:00001260       $pdata$_close_nolock       00000001815c9260     libucrt:close.obj
 0004:0000126c       $pdata$?__mbrtoc32_utf8@__crt_mbstring@@YA_KPEA_UPEBD_KPEAU_Mbstatet@@@Z 00000001815c926c     libucrt:mbrtoc32.obj
 0004:00001278       $pdata$fegetenv            00000001815c9278     libucrt:fegetenv.obj
 0004:00001284       $pdata$fesetenv            00000001815c9284     libucrt:fesetenv.obj
 0004:00001290       $pdata$feholdexcept        00000001815c9290     libucrt:feholdexcept.obj
 0004:000012a8       $pdata$__dcrt_lowio_ensure_console_output_initialized 00000001815c92a8     libucrt:initcon.obj
 0004:000012b4       $pdata$__dcrt_terminate_console_output 00000001815c92b4     libucrt:initcon.obj
 0004:000012c0       $pdata$__dcrt_write_console 00000001815c92c0     libucrt:initcon.obj
 0004:000012cc       $pdata$__acrt_fenv_set_control 00000001815c92cc     libucrt:_fenvutils.obj
 0004:000012d8       $pdata$_clearfp            00000001815c92d8     libucrt:ieee.obj
 0004:000012e4       $pdata$_call_matherr       00000001815c92e4     libucrt:libm_error.obj
 0004:000012f0       $pdata$_exception_enabled  00000001815c92f0     libucrt:libm_error.obj
 0004:000012fc       $pdata$_handle_error       00000001815c92fc     libucrt:libm_error.obj
 0004:00001308       $pdata$_handle_errorf      00000001815c9308     libucrt:libm_error.obj
 0004:00001314       $pdata$__acrt_initialize_fma3 00000001815c9314     libucrt:fma3_available.obj
 0004:00001320       $pdata$_log10_special      00000001815c9320     libucrt:log_special.obj
 0004:0000132c       $pdata$_log_special_common 00000001815c932c     libucrt:log_special.obj
 0004:00001344       $pdata$_raise_exc          00000001815c9344     libucrt:fpexcept.obj
 0004:00001350       $pdata$_raise_exc_ex       00000001815c9350     libucrt:fpexcept.obj
 0004:0000135c       $pdata$_raise_excf         00000001815c935c     libucrt:fpexcept.obj
 0004:00001368       $pdata$_set_errno_from_matherr 00000001815c9368     libucrt:fpexcept.obj
 0004:00001374       $pdata$_clrfp              00000001815c9374     libucrt:fpctrl.obj
 0004:00001380       $pdata$_ctrlfp             00000001815c9380     libucrt:fpctrl.obj
 0004:0000138c       $pdata$_set_statfp         00000001815c938c     libucrt:fpctrl.obj
 0004:00001398       $pdata$_statfp             00000001815c9398     libucrt:fpctrl.obj
 0004:000013a4       $pdata$?DloadAcquireSectionWriteAccess@@YAXXZ 00000001815c93a4     DelayImp:delayhlp.obj
 0004:000013b0       $pdata$?DloadGetSRWLockFunctionPointers@@YAEXZ 00000001815c93b0     DelayImp:delayhlp.obj
 0004:000013bc       $pdata$?DloadMakePermanentImageCommit@@YAXPEAX_K@Z 00000001815c93bc     DelayImp:delayhlp.obj
 0004:000013c8       $pdata$?DloadObtainSection@@YAPEAXPEAK0@Z 00000001815c93c8     DelayImp:delayhlp.obj
 0004:000013d4       $pdata$?DloadProtectSection@@YAXKPEAK@Z 00000001815c93d4     DelayImp:delayhlp.obj
 0004:000013e0       $pdata$?DloadReleaseSectionWriteAccess@@YAXXZ 00000001815c93e0     DelayImp:delayhlp.obj
 0004:000013ec       $pdata$__delayLoadHelper2  00000001815c93ec     DelayImp:delayhlp.obj
 0004:000013f8       $pdata$_IsNonwritableInCurrentImage 00000001815c93f8     LIBCMT:pesect.obj
 0004:00001404       $pdata$__GSHandlerCheck    00000001815c9404     LIBCMT:gshandler.obj
 0004:00001410       $pdata$__GSHandlerCheckCommon 00000001815c9410     LIBCMT:gshandler.obj
 0004:00001428       $pdata$strrchr             00000001815c9428     libvcruntime:strrchr.obj
 0004:00001440       $pdata$acosf               00000001815c9440     libucrt:acosf.obj
 0004:00001464       $pdata$sqrtf               00000001815c9464     libucrt:sqrtf.obj
 0004:00001494       $pdata$_sincosf_special    00000001815c9494     libucrt:sincos_special.obj
 0004:000014b8       $pdata$?fin$0@?0??dllmain_crt_process_attach@@YAHQEAUHINSTANCE__@@QEAX@Z@4HA 00000001815c94b8     LIBCMT:dll_dllmain.obj
 0004:000014c4       $pdata$?fin$0@?0??dllmain_crt_process_detach@@YAH_N@Z@4HA 00000001815c94c4     LIBCMT:dll_dllmain.obj
 0004:000014d0       $pdata$?filt$0@?0??dllmain_dispatch@@YAHQEAUHINSTANCE__@@KQEAX@Z@4HA 00000001815c94d0     LIBCMT:dll_dllmain.obj
 0004:000014dc       $pdata$__scrt_is_nonwritable_in_current_image$filt$0 00000001815c94dc     LIBCMT:utility.obj
 0004:000014e8       $pdata$__DestructExceptionObject$filt$0 00000001815c94e8     libvcruntime:ehhelpers.obj
 0004:000014f4       $pdata$?fin$0@?0???$?RV<lambda_84ec643ea9557e2f7dc01bb0e9624395>@@AEAV<lambda_ca71763b3c0644891230e4f79ea54fa6>@@V<lambda_439a761618c59b0600e24586724d733b>@@@?$__crt_seh_guarded_call@H@@QEAAH$$QEAV<lambda_84ec643ea9557e2f7dc01bb0e9624395>@@AEAV<lambda_ca71763b3c0644891230e4f79ea54fa6>@@$$QEAV<lambda_439a761618c59b0600e24586724d733b>@@@Z@4HA 00000001815c94f4     libucrt:setvbuf.obj
 0004:000014f4       $pdata$?fin$0@?0???$?RV<lambda_0d412022a4b28cc8a401ea49574e8ae6>@@AEAV<lambda_a775ed57af18ba8e4d5dc780aa9068fe>@@V<lambda_975a71a6baa488a08f4e15f6b0339b9e>@@@?$__crt_seh_guarded_call@H@@QEAAH$$QEAV<lambda_0d412022a4b28cc8a401ea49574e8ae6>@@AEAV<lambda_a775ed57af18ba8e4d5dc780aa9068fe>@@$$QEAV<lambda_975a71a6baa488a08f4e15f6b0339b9e>@@@Z@4HA 00000001815c94f4     libucrt:output.obj
 0004:000014f4       $pdata$?fin$0@?0???$?RV<lambda_842d9ff0dc9ef11c61343bbaebe7f885>@@AEAV<lambda_c5860995281e5c4ce005b3de8f5874ee>@@V<lambda_d90129c13df834fdcbf8d2b88dafcf2d>@@@?$__crt_seh_guarded_call@X@@QEAAX$$QEAV<lambda_842d9ff0dc9ef11c61343bbaebe7f885>@@AEAV<lambda_c5860995281e5c4ce005b3de8f5874ee>@@$$QEAV<lambda_d90129c13df834fdcbf8d2b88dafcf2d>@@@Z@4HA 00000001815c94f4     libucrt:fflush.obj
 0004:000014f4       $pdata$?fin$0@?0???$?RV<lambda_c376a267cfb53b6959b3b692ec76b120>@@AEAV<lambda_9a32fed5bf61b6b509b2d3f6003082a1>@@V<lambda_572fbb9fa0ab338edf41edfd4b5fcc8d>@@@?$__crt_seh_guarded_call@H@@QEAAH$$QEAV<lambda_c376a267cfb53b6959b3b692ec76b120>@@AEAV<lambda_9a32fed5bf61b6b509b2d3f6003082a1>@@$$QEAV<lambda_572fbb9fa0ab338edf41edfd4b5fcc8d>@@@Z@4HA 00000001815c94f4     libucrt:fflush.obj
 0004:00001500       $pdata$_query_new_handler$fin$0 00000001815c9500     libucrt:new_handler.obj
 0004:0000150c       $pdata$?fin$0@?0???$?RV<lambda_2d41944a1d46af3157314b8a01080d33>@@AEAV<lambda_8f455de75cd7d7f24b4096f044d8b9e6>@@V<lambda_aa500f224e6afead328df44964fe2772>@@@?$__crt_seh_guarded_call@X@@QEAAX$$QEAV<lambda_2d41944a1d46af3157314b8a01080d33>@@AEAV<lambda_8f455de75cd7d7f24b4096f044d8b9e6>@@$$QEAV<lambda_aa500f224e6afead328df44964fe2772>@@@Z@4HA 00000001815c950c     libucrt:per_thread_data.obj
 0004:0000150c       $pdata$?fin$0@?0???$?RV<lambda_d80eeec6fff315bfe5c115232f3240e3>@@AEAV<lambda_6e4b09c48022b2350581041d5f6b0c4c>@@V<lambda_2358e3775559c9db80273638284d5e45>@@@?$__crt_seh_guarded_call@X@@QEAAX$$QEAV<lambda_d80eeec6fff315bfe5c115232f3240e3>@@AEAV<lambda_6e4b09c48022b2350581041d5f6b0c4c>@@$$QEAV<lambda_2358e3775559c9db80273638284d5e45>@@@Z@4HA 00000001815c950c     libucrt:exit.obj
 0004:0000150c       $pdata$?fin$0@?0???$?RV<lambda_0ae27a3a962d80f24befdcbee591983d>@@AEAV<lambda_8d0ee55de4b1038c4002e0adecdf1839>@@V<lambda_dc504788e8f1664fe9b84e20bfb512f2>@@@?$__crt_seh_guarded_call@X@@QEAAX$$QEAV<lambda_0ae27a3a962d80f24befdcbee591983d>@@AEAV<lambda_8d0ee55de4b1038c4002e0adecdf1839>@@$$QEAV<lambda_dc504788e8f1664fe9b84e20bfb512f2>@@@Z@4HA 00000001815c950c     libucrt:per_thread_data.obj
 0004:0000150c       $pdata$?fin$0@?0???$?RV<lambda_aa87e3671a710a21b5dc78c0bdf72e11>@@AEAV<lambda_92619d2358a28f41a33ba319515a20b9>@@V<lambda_6992ecaafeb10aed2b74cb1fae11a551>@@@?$__crt_seh_guarded_call@X@@QEAAX$$QEAV<lambda_aa87e3671a710a21b5dc78c0bdf72e11>@@AEAV<lambda_92619d2358a28f41a33ba319515a20b9>@@$$QEAV<lambda_6992ecaafeb10aed2b74cb1fae11a551>@@@Z@4HA 00000001815c950c     libucrt:per_thread_data.obj
 0004:0000150c       $pdata$?fin$0@?0???$?RV<lambda_f2e299630e499de9f9a165e60fcd3db5>@@AEAV<lambda_2ae9d31cdba2644fcbeaf08da7c24588>@@V<lambda_40d01ff24d0e7b3814fdbdcee8eab3c7>@@@?$__crt_seh_guarded_call@X@@QEAAX$$QEAV<lambda_f2e299630e499de9f9a165e60fcd3db5>@@AEAV<lambda_2ae9d31cdba2644fcbeaf08da7c24588>@@$$QEAV<lambda_40d01ff24d0e7b3814fdbdcee8eab3c7>@@@Z@4HA 00000001815c950c     libucrt:per_thread_data.obj
 0004:0000150c       $pdata$?fin$0@?0???$?RV<lambda_7777bce6b2f8c936911f934f8298dc43>@@AEAV<lambda_f03950bc5685219e0bcd2087efbe011e>@@V<lambda_3883c3dff614d5e0c5f61bb1ac94921c>@@@?$__crt_seh_guarded_call@H@@QEAAH$$QEAV<lambda_7777bce6b2f8c936911f934f8298dc43>@@AEAV<lambda_f03950bc5685219e0bcd2087efbe011e>@@$$QEAV<lambda_3883c3dff614d5e0c5f61bb1ac94921c>@@@Z@4HA 00000001815c950c     libucrt:onexit.obj
 0004:0000150c       $pdata$?fin$0@?0???$?RV<lambda_450d765d439847d4c735a33c368b5fc0>@@AEAV<lambda_44731a7d0e6d81c3e6aa82d741081786>@@V<lambda_601a2a7da3b7a96e9554ac7215c4b07c>@@@?$__crt_seh_guarded_call@P6AXH@Z@@QEAAP6AXH@Z$$QEAV<lambda_450d765d439847d4c735a33c368b5fc0>@@AEAV<lambda_44731a7d0e6d81c3e6aa82d741081786>@@$$QEAV<lambda_601a2a7da3b7a96e9554ac7215c4b07c>@@@Z@4HA 00000001815c950c     libucrt:signal.obj
 0004:0000150c       $pdata$?fin$0@?0???$?RV<lambda_efdfa57d1f175319df784efa44bb7b81>@@AEAV<lambda_5f0a4c1567f8adc6734073e5d1e1b35c>@@V<lambda_2e8a7d3640ea6ccb4c2413664c2db6fd>@@@?$__crt_seh_guarded_call@X@@QEAAX$$QEAV<lambda_efdfa57d1f175319df784efa44bb7b81>@@AEAV<lambda_5f0a4c1567f8adc6734073e5d1e1b35c>@@$$QEAV<lambda_2e8a7d3640ea6ccb4c2413664c2db6fd>@@@Z@4HA 00000001815c950c     libucrt:mbctype.obj
 0004:00001518       $pdata$?filt$0@?0???R<lambda_6e4b09c48022b2350581041d5f6b0c4c>@@QEBA@XZ@4HA 00000001815c9518     libucrt:exit.obj
 0004:00001524       $pdata$__acrt_lowio_ensure_fh_exists$fin$0 00000001815c9524     libucrt:osfinfo.obj
 0004:00001524       $pdata$__acrt_initialize_lowio$fin$0 00000001815c9524     libucrt:ioinit.obj
 0004:00001530       $pdata$_fcloseall$fin$0    00000001815c9530     libucrt:closeall.obj
 0004:0000153c       $pdata$?fin$0@?0???$?RV<lambda_886d6c58226a84441f68b9f2b8217b83>@@AEAV<lambda_ab61a845afdef5b7c387490eaf3616ee>@@V<lambda_f7f22ab5edc0698d5f6905b0d3f44752>@@@?$__crt_seh_guarded_call@X@@QEAAX$$QEAV<lambda_886d6c58226a84441f68b9f2b8217b83>@@AEAV<lambda_ab61a845afdef5b7c387490eaf3616ee>@@$$QEAV<lambda_f7f22ab5edc0698d5f6905b0d3f44752>@@@Z@4HA 00000001815c953c     libucrt:fflush.obj
 0004:00001548       $pdata$?fin$0@?0???$?RV<lambda_410d79af7f07d98d83a3f525b3859a53>@@AEAV<lambda_3e16ef9562a7dcce91392c22ab16ea36>@@V<lambda_38119f0e861e05405d8a144b9b982f0a>@@@?$__crt_seh_guarded_call@X@@QEAAX$$QEAV<lambda_410d79af7f07d98d83a3f525b3859a53>@@AEAV<lambda_3e16ef9562a7dcce91392c22ab16ea36>@@$$QEAV<lambda_38119f0e861e05405d8a144b9b982f0a>@@@Z@4HA 00000001815c9548     libucrt:wsetlocale.obj
 0004:00001554       $pdata$raise$fin$0         00000001815c9554     libucrt:signal.obj
 0004:00001560       $pdata$?fin$0@?0??update_thread_multibyte_data_internal@@YAPEAU__crt_multibyte_data@@QEAU__acrt_ptd@@QEAPEAU1@@Z@4HA 00000001815c9560     libucrt:mbctype.obj
 0004:0000156c       $pdata$?fin$0@?0???$common_lseek@_J@@YA_JH_JH@Z@4HA 00000001815c956c     libucrt:lseek.obj
 0004:0000156c       $pdata$_write$fin$0        00000001815c956c     libucrt:write.obj
 0004:00001578       $pdata$fclose$fin$0        00000001815c9578     libucrt:fclose.obj
 0004:00001584       $pdata$?fin$0@?0???$?RV<lambda_751a882b2c74d4b022dec766aa51a29a>@@AEAV<lambda_628dfdc04ba53c8bfc02c9951375f3f5>@@V<lambda_f6c7be5f7998530c34de24c7437d6b54>@@@?$__crt_seh_guarded_call@H@@QEAAH$$QEAV<lambda_751a882b2c74d4b022dec766aa51a29a>@@AEAV<lambda_628dfdc04ba53c8bfc02c9951375f3f5>@@$$QEAV<lambda_f6c7be5f7998530c34de24c7437d6b54>@@@Z@4HA 00000001815c9584     libucrt:close.obj
 0004:00001584       $pdata$?fin$0@?0???$?RV<lambda_a37b2b86f63e897a80ea819b0eb08c01>@@AEAV<lambda_38ce7e780aa69e748d6df282ebc68efe>@@V<lambda_99fb1378e971ab6e7edea83e3a7a83a2>@@@?$__crt_seh_guarded_call@H@@QEAAH$$QEAV<lambda_a37b2b86f63e897a80ea819b0eb08c01>@@AEAV<lambda_38ce7e780aa69e748d6df282ebc68efe>@@$$QEAV<lambda_99fb1378e971ab6e7edea83e3a7a83a2>@@@Z@4HA 00000001815c9584     libucrt:commit.obj
 0004:00001590       $pdata$__acrt_update_thread_locale_data$fin$0 00000001815c9590     libucrt:locale_refcounting.obj
 0004:0000159c       $pdata$_ctrlfp$filt$0      00000001815c959c     libucrt:fpctrl.obj
 0004:000015a8       $pdata$_IsNonwritableInCurrentImage$filt$0 00000001815c95a8     LIBCMT:pesect.obj
 0005:00000060       $R000000                   00000001815ca060     * linker generated manifest res *

 Exports

  ordinal    name

        1    _register_an_
